; ModuleID = '/home/user/galapagos/hlsBuild/adm-8k5-debug/ip/galapagos_bridge/solution1/.autopilot/db/a.o.2.bc'
target datalayout = "e-p:64:64:64-i1:8:8-i8:8:8-i16:16:16-i32:32:32-i64:64:64-f32:32:32-f64:64:64-v64:64:64-v128:128:128-a0:0:64-s0:64:64-f80:128:128-n8:16:32:64-S128"
target triple = "x86_64-unknown-linux-gnu"

@llvm.global_ctors.1 = appending global [0 x void ()*] zeroinitializer ; [#uses=0 type=[0 x void ()*]*]
@llvm.global_ctors.0 = appending global [0 x i32] zeroinitializer ; [#uses=0 type=[0 x i32]*]
@galapagos_bridge.str = internal unnamed_addr constant [17 x i8] c"galapagos_bridge\00" ; [#uses=1 type=[17 x i8]*]
@ap_fifo.str = internal unnamed_addr constant [8 x i8] c"ap_fifo\00" ; [#uses=8 type=[8 x i8]*]
@.str99 = internal unnamed_addr constant [1 x i8] zeroinitializer ; [#uses=2 type=[1 x i8]*]
@.str98 = internal unnamed_addr constant [1 x i8] zeroinitializer ; [#uses=2 type=[1 x i8]*]
@.str97 = internal unnamed_addr constant [1 x i8] zeroinitializer ; [#uses=2 type=[1 x i8]*]
@.str96 = internal unnamed_addr constant [1 x i8] zeroinitializer ; [#uses=2 type=[1 x i8]*]
@.str95 = internal unnamed_addr constant [1 x i8] zeroinitializer ; [#uses=2 type=[1 x i8]*]
@.str94 = internal unnamed_addr constant [1 x i8] zeroinitializer ; [#uses=2 type=[1 x i8]*]
@.str93 = internal unnamed_addr constant [1 x i8] zeroinitializer ; [#uses=2 type=[1 x i8]*]
@.str92 = internal unnamed_addr constant [1 x i8] zeroinitializer ; [#uses=2 type=[1 x i8]*]
@.str91 = internal unnamed_addr constant [1 x i8] zeroinitializer ; [#uses=2 type=[1 x i8]*]
@.str9 = private unnamed_addr constant [23 x i8] c"-bus_bundle s_axis_n2G\00", align 1 ; [#uses=2 type=[23 x i8]*]
@.str8 = private unnamed_addr constant [23 x i8] c"-bus_bundle m_axis_n2G\00", align 1 ; [#uses=2 type=[23 x i8]*]
@.str7 = private unnamed_addr constant [23 x i8] c"-bus_bundle s_axis_g2N\00", align 1 ; [#uses=2 type=[23 x i8]*]
@.str6 = private unnamed_addr constant [23 x i8] c"-bus_bundle m_axis_g2N\00", align 1 ; [#uses=2 type=[23 x i8]*]
@.str5 = private unnamed_addr constant [11 x i8] c"AXI4Stream\00", align 1 ; [#uses=8 type=[11 x i8]*]
@.str4 = private unnamed_addr constant [13 x i8] c"ap_ctrl_none\00", align 1 ; [#uses=1 type=[13 x i8]*]
@.str3 = private unnamed_addr constant [15 x i8] c"write_n2G_loop\00", align 1 ; [#uses=3 type=[15 x i8]*]
@.str2 = private unnamed_addr constant [10 x i8] c"read_loop\00", align 1 ; [#uses=3 type=[10 x i8]*]
@.str114 = internal unnamed_addr constant [1 x i8] zeroinitializer ; [#uses=2 type=[1 x i8]*]
@.str113 = internal unnamed_addr constant [1 x i8] zeroinitializer ; [#uses=2 type=[1 x i8]*]
@.str112 = internal unnamed_addr constant [1 x i8] zeroinitializer ; [#uses=2 type=[1 x i8]*]
@.str111 = internal unnamed_addr constant [1 x i8] zeroinitializer ; [#uses=2 type=[1 x i8]*]
@.str110 = internal unnamed_addr constant [1 x i8] zeroinitializer ; [#uses=2 type=[1 x i8]*]
@.str109 = internal unnamed_addr constant [1 x i8] zeroinitializer ; [#uses=2 type=[1 x i8]*]
@.str108 = internal unnamed_addr constant [1 x i8] zeroinitializer ; [#uses=2 type=[1 x i8]*]
@.str107 = internal unnamed_addr constant [1 x i8] zeroinitializer ; [#uses=2 type=[1 x i8]*]
@.str106 = internal unnamed_addr constant [1 x i8] zeroinitializer ; [#uses=2 type=[1 x i8]*]
@.str105 = internal unnamed_addr constant [1 x i8] zeroinitializer ; [#uses=2 type=[1 x i8]*]
@.str104 = internal unnamed_addr constant [1 x i8] zeroinitializer ; [#uses=2 type=[1 x i8]*]
@.str103 = internal unnamed_addr constant [1 x i8] zeroinitializer ; [#uses=2 type=[1 x i8]*]
@.str102 = internal unnamed_addr constant [1 x i8] zeroinitializer ; [#uses=2 type=[1 x i8]*]
@.str101 = internal unnamed_addr constant [1 x i8] zeroinitializer ; [#uses=2 type=[1 x i8]*]
@.str100 = internal unnamed_addr constant [1 x i8] zeroinitializer ; [#uses=2 type=[1 x i8]*]
@.str10 = private unnamed_addr constant [7 x i8] c"RAM_1P\00", align 1 ; [#uses=4 type=[7 x i8]*]
@.str1 = private unnamed_addr constant [1 x i8] zeroinitializer, align 1 ; [#uses=86 type=[1 x i8]*]
@.str = private unnamed_addr constant [11 x i8] c"write_loop\00", align 1 ; [#uses=3 type=[11 x i8]*]

; [#uses=1]
define internal fastcc void @n2G(i73* %input.V, i89* %output.V) {
codeRepl:
  call void (...)* @_ssdm_op_SpecIFCore(i73* %input.V, [1 x i8]* @.str1, [11 x i8]* @.str5, [1 x i8]* @.str1, i32 -1, [1 x i8]* @.str1, [1 x i8]* @.str1, [1 x i8]* @.str1, [1 x i8]* @.str1, [23 x i8]* @.str9)
  call void (...)* @_ssdm_op_SpecIFCore(i89* %output.V, [1 x i8]* @.str1, [11 x i8]* @.str5, [1 x i8]* @.str1, i32 -1, [1 x i8]* @.str1, [1 x i8]* @.str1, [1 x i8]* @.str1, [1 x i8]* @.str1, [23 x i8]* @.str8)
  call void (...)* @_ssdm_op_SpecInterface(i73* %input.V, [8 x i8]* @ap_fifo.str, i32 0, i32 0, [1 x i8]* @.str103, i32 0, i32 0, [1 x i8]* @.str104, [1 x i8]* @.str105, [1 x i8]* @.str106, i32 2, i32 2, i32 16, i32 16, [1 x i8]* @.str107, [1 x i8]* @.str108)
  call void (...)* @_ssdm_op_SpecInterface(i89* %output.V, [8 x i8]* @ap_fifo.str, i32 0, i32 0, [1 x i8]* @.str109, i32 0, i32 0, [1 x i8]* @.str110, [1 x i8]* @.str111, [1 x i8]* @.str112, i32 2, i32 2, i32 16, i32 16, [1 x i8]* @.str113, [1 x i8]* @.str114)
  %tmp.116 = alloca i73, align 8                  ; [#uses=2 type=i73*]
  %tmp = alloca i73, align 8                      ; [#uses=2 type=i73*]
  %tmp.2 = alloca i89, align 8                    ; [#uses=2 type=i89*]
  call void @llvm.dbg.value(metadata !{i73* %input.V}, i64 0, metadata !7793), !dbg !7812 ; [debug line = 123:37] [debug variable = input.V]
  call void @llvm.dbg.value(metadata !{i89* %output.V}, i64 0, metadata !7813), !dbg !7831 ; [debug line = 124:26] [debug variable = output.V]
  call void @llvm.dbg.declare(metadata !{i73* %tmp}, metadata !7832), !dbg !7839 ; [debug line = 130:22@133:9] [debug variable = tmp]
  call void @"_ssdm_op_IfRead.Stream.%struct.ap_axis_net.11 = type { %struct.ap_uint.4, %struct.ap_uint.0.7, %struct.ap_uint.3.10 }P.%struct.ap_axis_net.11 = type { %struct.ap_uint.4, %struct.ap_uint.0.7, %struct.ap_uint.3.10 }P"(i73* %input.V, i73* %tmp)
  call void @llvm.dbg.value(metadata !{i73* %tmp}, i64 0, metadata !7832), !dbg !7842 ; [debug line = 281:5@47:8@133:9] [debug variable = tmp]
  call void @llvm.dbg.value(metadata !{i73* %tmp}, i64 0, metadata !7832), !dbg !7842 ; [debug line = 281:5@47:8@133:9] [debug variable = tmp]
  %__Val2__.new = load i73* %tmp, align 8, !dbg !7842 ; [#uses=2 type=i73] [debug line = 281:5@47:8@133:9]
  %tmp.id.V = call i8 @_ssdm_op_PartSelect.i8.i73.i32.i32(i73 %__Val2__.new, i32 16, i32 23), !dbg !7850 ; [#uses=1 type=i8] [debug line = 941:81@1538:15@200:100@200:101@134:13]
  %tmp.dest.V = call i8 @_ssdm_op_PartSelect.i8.i73.i32.i32(i73 %__Val2__.new, i32 24, i32 31), !dbg !7866 ; [#uses=1 type=i8] [debug line = 941:81@1538:15@200:100@200:101@135:15]
  br label %0, !dbg !7871                         ; [debug line = 141:16]

; <label>:0                                       ; preds = %3, %codeRepl
  %i = phi i10 [ 0, %codeRepl ], [ %i.1, %3 ]     ; [#uses=2 type=i10]
  %tmp.1 = icmp sgt i10 %i, -1, !dbg !7871        ; [#uses=1 type=i1] [debug line = 141:16]
  %1 = call i32 (...)* @_ssdm_op_SpecLoopTripCount(i64 1, i64 512, i64 256) ; [#uses=0 type=i32]
  br i1 %tmp.1, label %2, label %.loopexit, !dbg !7871 ; [debug line = 141:16]

; <label>:2                                       ; preds = %0
  call void (...)* @_ssdm_op_SpecLoopName([15 x i8]* @.str3) nounwind, !dbg !7873 ; [debug line = 141:33]
  %tmp.3 = call i32 (...)* @_ssdm_op_SpecRegionBegin([15 x i8]* @.str3), !dbg !7873 ; [#uses=1 type=i32] [debug line = 141:33]
  call void (...)* @_ssdm_op_SpecPipeline(i32 1, i32 1, i32 1, i32 0, [1 x i8]* @.str1) nounwind, !dbg !7875 ; [debug line = 142:1]
  call void @llvm.dbg.declare(metadata !{i73* %tmp.116}, metadata !7876), !dbg !7877 ; [debug line = 130:22@143:5] [debug variable = tmp.116]
  call void @"_ssdm_op_IfRead.Stream.%struct.ap_axis_net.11 = type { %struct.ap_uint.4, %struct.ap_uint.0.7, %struct.ap_uint.3.10 }P.%struct.ap_axis_net.11 = type { %struct.ap_uint.4, %struct.ap_uint.0.7, %struct.ap_uint.3.10 }P"(i73* %input.V, i73* %tmp.116)
  call void @llvm.dbg.value(metadata !{i73* %tmp.116}, i64 0, metadata !7876), !dbg !7879 ; [debug line = 281:5@47:8@143:5] [debug variable = tmp.116]
  call void @llvm.dbg.value(metadata !{i73* %tmp.116}, i64 0, metadata !7876), !dbg !7879 ; [debug line = 281:5@47:8@143:5] [debug variable = tmp.116]
  %tmp.116.load = load i73* %tmp.116, align 8, !dbg !7879 ; [#uses=3 type=i73] [debug line = 281:5@47:8@143:5]
  %tmp.data.V = call i64 @_ssdm_op_PartSelect.i64.i73.i32.i32(i73 %tmp.116.load, i32 0, i32 63), !dbg !7879 ; [#uses=1 type=i64] [debug line = 281:5@47:8@143:5]
  %tmp.keep.V = call i8 @_ssdm_op_PartSelect.i8.i73.i32.i32(i73 %tmp.116.load, i32 64, i32 71), !dbg !7881 ; [#uses=1 type=i8] [debug line = 281:5@47:8@143:5]
  %tmp.last.V = call i1 @_ssdm_op_PartSelect.i1.i73.i32.i32(i73 %tmp.116.load, i32 72, i32 72), !dbg !7884 ; [#uses=2 type=i1] [debug line = 281:5@47:8@143:5]
  call void @llvm.dbg.declare(metadata !{i89* %tmp.2}, metadata !7887), !dbg !7896 ; [debug line = 145:22@151:6] [debug variable = tmp.2]
  call void @llvm.dbg.value(metadata !{i64 %tmp.data.V}, i64 0, metadata !7891), !dbg !7898 ; [debug line = 145:31@151:6] [debug variable = tmp.data.V]
  call void @llvm.dbg.value(metadata !{i89* %tmp.2}, i64 0, metadata !7887), !dbg !7898 ; [debug line = 145:31@151:6] [debug variable = tmp.2]
  call void @llvm.dbg.value(metadata !{i8 %tmp.dest.V}, i64 0, metadata !7892), !dbg !7898 ; [debug line = 145:31@151:6] [debug variable = tmp.dest.V]
  call void @llvm.dbg.value(metadata !{i1 %tmp.last.V}, i64 0, metadata !7893), !dbg !7898 ; [debug line = 145:31@151:6] [debug variable = tmp.last.V]
  call void @llvm.dbg.value(metadata !{i8 %tmp.id.V}, i64 0, metadata !7894), !dbg !7898 ; [debug line = 145:31@151:6] [debug variable = tmp.id.V]
  call void @llvm.dbg.value(metadata !{i8 %tmp.keep.V}, i64 0, metadata !7895), !dbg !7898 ; [debug line = 145:31@151:6] [debug variable = tmp.keep.V]
  %tmp.2.1 = call i89 @_ssdm_op_BitConcatenate.i89.i8.i8.i1.i8.i64(i8 %tmp.keep.V, i8 %tmp.id.V, i1 %tmp.last.V, i8 %tmp.dest.V, i64 %tmp.data.V), !dbg !7898 ; [#uses=1 type=i89] [debug line = 145:31@151:6]
  call void @llvm.dbg.value(metadata !{i89 %tmp.2.1}, i64 0, metadata !7887), !dbg !7898 ; [debug line = 145:31@151:6] [debug variable = tmp.2]
  call void @llvm.dbg.value(metadata !{i89 %tmp.2.1}, i64 0, metadata !7887), !dbg !7898 ; [debug line = 145:31@151:6] [debug variable = tmp.2]
  store i89 %tmp.2.1, i89* %tmp.2, align 8, !dbg !7898 ; [debug line = 145:31@151:6]
  call void @"_ssdm_op_IfWrite.Stream.%\22struct.galapagos::stream_packet.12\22 = type { %struct.ap_uint.4, %struct.ap_uint.0.7, %struct.ap_uint.3.10, %struct.ap_uint.0.7, %struct.ap_uint.0.7 }P.%\22struct.galapagos::stream_packet.12\22 = type { %struct.ap_uint.4, %struct.ap_uint.0.7, %struct.ap_uint.3.10, %struct.ap_uint.0.7, %struct.ap_uint.0.7 }P"(i89* %output.V, i89* %tmp.2)
  br i1 %tmp.last.V, label %.loopexit, label %3, !dbg !7899 ; [debug line = 152:9]

; <label>:3                                       ; preds = %2
  %4 = call i32 (...)* @_ssdm_op_SpecRegionEnd([15 x i8]* @.str3, i32 %tmp.3), !dbg !7900 ; [#uses=0 type=i32] [debug line = 156:5]
  %i.1 = add i10 %i, 1, !dbg !7901                ; [#uses=1 type=i10] [debug line = 141:28]
  call void @llvm.dbg.value(metadata !{i10 %i.1}, i64 0, metadata !7902), !dbg !7901 ; [debug line = 141:28] [debug variable = i]
  br label %0, !dbg !7901                         ; [debug line = 141:28]

.loopexit:                                        ; preds = %2, %0
  ret void, !dbg !7903                            ; [debug line = 158:1]
}

; [#uses=70]
declare void @llvm.dbg.value(metadata, i64, metadata) nounwind readnone

; [#uses=15]
declare void @llvm.dbg.declare(metadata, metadata) nounwind readnone

; [#uses=0]
define void @galapagos_bridge(i89* %g2N_input.V, i73* %g2N_output.V, [512 x i64]* %buffer_storage_A.V, [512 x i64]* %buffer_storage_B.V, i73* %n2G_input.V, i89* %n2G_output.V) {
  %src_stream.V.V = alloca i8, align 1            ; [#uses=2 type=i8*]
  %dest_stream.V.V = alloca i8, align 1           ; [#uses=2 type=i8*]
  %length_stream.V.V = alloca i16, align 2        ; [#uses=2 type=i16*]
  call void (...)* @_ssdm_op_SpecDataflowPipeline(i32 -1, [1 x i8]* @.str1) nounwind, !dbg !7904 ; [debug line = 170:1]
  call void (...)* @_ssdm_op_SpecInterface(i89* %n2G_output.V, [8 x i8]* @ap_fifo.str, i32 0, i32 0, [1 x i8]* @.str109, i32 0, i32 0, [1 x i8]* @.str110, [1 x i8]* @.str111, [1 x i8]* @.str112, i32 2, i32 2, i32 16, i32 16, [1 x i8]* @.str113, [1 x i8]* @.str114)
  call void (...)* @_ssdm_op_SpecInterface(i73* %n2G_input.V, [8 x i8]* @ap_fifo.str, i32 0, i32 0, [1 x i8]* @.str103, i32 0, i32 0, [1 x i8]* @.str104, [1 x i8]* @.str105, [1 x i8]* @.str106, i32 2, i32 2, i32 16, i32 16, [1 x i8]* @.str107, [1 x i8]* @.str108)
  call void (...)* @_ssdm_op_SpecInterface(i73* %g2N_output.V, [8 x i8]* @ap_fifo.str, i32 0, i32 0, [1 x i8]* @.str97, i32 0, i32 0, [1 x i8]* @.str98, [1 x i8]* @.str99, [1 x i8]* @.str100, i32 2, i32 2, i32 16, i32 16, [1 x i8]* @.str101, [1 x i8]* @.str102)
  call void (...)* @_ssdm_op_SpecInterface(i89* %g2N_input.V, [8 x i8]* @ap_fifo.str, i32 0, i32 0, [1 x i8]* @.str91, i32 0, i32 0, [1 x i8]* @.str92, [1 x i8]* @.str93, [1 x i8]* @.str94, i32 2, i32 2, i32 16, i32 16, [1 x i8]* @.str95, [1 x i8]* @.str96)
  call void (...)* @_ssdm_op_SpecBitsMap(i89* %n2G_output.V), !map !7909
  call void (...)* @_ssdm_op_SpecBitsMap(i73* %n2G_input.V), !map !7925
  call void (...)* @_ssdm_op_SpecBitsMap(i73* %g2N_output.V), !map !7935
  call void (...)* @_ssdm_op_SpecBitsMap(i89* %g2N_input.V), !map !7945
  call void (...)* @_ssdm_op_SpecBitsMap([512 x i64]* %buffer_storage_A.V), !map !7961
  call void (...)* @_ssdm_op_SpecBitsMap([512 x i64]* %buffer_storage_B.V), !map !7967
  call void (...)* @_ssdm_op_SpecTopModule([17 x i8]* @galapagos_bridge.str) nounwind
  call void (...)* @_ssdm_op_SpecInterface(i32 0, [13 x i8]* @.str4, i32 0, i32 0, [1 x i8]* @.str1, i32 0, i32 0, [1 x i8]* @.str1, [1 x i8]* @.str1, [1 x i8]* @.str1, i32 0, i32 0, i32 0, i32 0, [1 x i8]* @.str1, [1 x i8]* @.str1) nounwind, !dbg !7971 ; [debug line = 172:1]
  call void (...)* @_ssdm_op_SpecIFCore(i73* %g2N_output.V, [1 x i8]* @.str1, [11 x i8]* @.str5, [1 x i8]* @.str1, i32 -1, [1 x i8]* @.str1, [1 x i8]* @.str1, [1 x i8]* @.str1, [1 x i8]* @.str1, [23 x i8]* @.str6)
  call void (...)* @_ssdm_op_SpecIFCore(i89* %g2N_input.V, [1 x i8]* @.str1, [11 x i8]* @.str5, [1 x i8]* @.str1, i32 -1, [1 x i8]* @.str1, [1 x i8]* @.str1, [1 x i8]* @.str1, [1 x i8]* @.str1, [23 x i8]* @.str7)
  call void (...)* @_ssdm_op_SpecIFCore(i89* %n2G_output.V, [1 x i8]* @.str1, [11 x i8]* @.str5, [1 x i8]* @.str1, i32 -1, [1 x i8]* @.str1, [1 x i8]* @.str1, [1 x i8]* @.str1, [1 x i8]* @.str1, [23 x i8]* @.str8)
  call void (...)* @_ssdm_op_SpecIFCore(i73* %n2G_input.V, [1 x i8]* @.str1, [11 x i8]* @.str5, [1 x i8]* @.str1, i32 -1, [1 x i8]* @.str1, [1 x i8]* @.str1, [1 x i8]* @.str1, [1 x i8]* @.str1, [23 x i8]* @.str9)
  call void (...)* @_ssdm_op_SpecMemCore([512 x i64]* %buffer_storage_A.V, [1 x i8]* @.str1, [7 x i8]* @.str10, [1 x i8]* @.str1, i32 -1, [1 x i8]* @.str1, [1 x i8]* @.str1, [1 x i8]* @.str1, [1 x i8]* @.str1, [1 x i8]* @.str1)
  call void (...)* @_ssdm_op_SpecMemCore([512 x i64]* %buffer_storage_B.V, [1 x i8]* @.str1, [7 x i8]* @.str10, [1 x i8]* @.str1, i32 -1, [1 x i8]* @.str1, [1 x i8]* @.str1, [1 x i8]* @.str1, [1 x i8]* @.str1, [1 x i8]* @.str1)
  call void @llvm.dbg.value(metadata !{i89* %g2N_input.V}, i64 0, metadata !7972), !dbg !7979 ; [debug line = 162:32] [debug variable = g2N_input.V]
  call void @llvm.dbg.value(metadata !{i73* %g2N_output.V}, i64 0, metadata !7980), !dbg !7985 ; [debug line = 163:35] [debug variable = g2N_output.V]
  call void @llvm.dbg.value(metadata !{[512 x i64]* %buffer_storage_A.V}, i64 0, metadata !7986), !dbg !7991 ; [debug line = 164:23] [debug variable = buffer_storage_A.V]
  call void @llvm.dbg.value(metadata !{[512 x i64]* %buffer_storage_B.V}, i64 0, metadata !7992), !dbg !7994 ; [debug line = 165:17] [debug variable = buffer_storage_B.V]
  call void @llvm.dbg.value(metadata !{i73* %n2G_input.V}, i64 0, metadata !7995), !dbg !8000 ; [debug line = 166:30] [debug variable = n2G_input.V]
  call void @llvm.dbg.value(metadata !{i89* %n2G_output.V}, i64 0, metadata !8001), !dbg !8008 ; [debug line = 167:33] [debug variable = n2G_output.V]
  call void @llvm.dbg.declare(metadata !{i16* %length_stream.V.V}, metadata !8009), !dbg !8019 ; [debug line = 189:29] [debug variable = length_stream.V.V]
  call void @llvm.dbg.declare(metadata !{i8* %dest_stream.V.V}, metadata !8020), !dbg !8023 ; [debug line = 190:31] [debug variable = dest_stream.V.V]
  call void @llvm.dbg.declare(metadata !{i8* %src_stream.V.V}, metadata !8024), !dbg !8026 ; [debug line = 191:31] [debug variable = src_stream.V.V]
  call fastcc void @g2N_ingress(i89* %g2N_input.V, [512 x i64]* nocapture %buffer_storage_A.V, i16* %length_stream.V.V, i8* %dest_stream.V.V, i8* %src_stream.V.V)
  call fastcc void @g2N_egress(i73* %g2N_output.V, [512 x i64]* nocapture %buffer_storage_B.V, i16* %length_stream.V.V, i8* %dest_stream.V.V, i8* %src_stream.V.V)
  call fastcc void @n2G(i73* %n2G_input.V, i89* %n2G_output.V)
  ret void, !dbg !8027                            ; [debug line = 220:1]
}

; [#uses=1]
define internal fastcc void @g2N_ingress(i89* %input.V, [512 x i64]* nocapture %buffer_storage.V, i16* %length_stream.V.V, i8* %dest_stream.V.V, i8* %src_stream.V.V) {
  call void (...)* @_ssdm_op_SpecMemCore([512 x i64]* %buffer_storage.V, [1 x i8]* @.str1, [7 x i8]* @.str10, [1 x i8]* @.str1, i32 -1, [1 x i8]* @.str1, [1 x i8]* @.str1, [1 x i8]* @.str1, [1 x i8]* @.str1, [1 x i8]* @.str1)
  call void (...)* @_ssdm_op_SpecIFCore(i89* %input.V, [1 x i8]* @.str1, [11 x i8]* @.str5, [1 x i8]* @.str1, i32 -1, [1 x i8]* @.str1, [1 x i8]* @.str1, [1 x i8]* @.str1, [1 x i8]* @.str1, [23 x i8]* @.str7)
  call void (...)* @_ssdm_op_SpecInterface(i89* %input.V, [8 x i8]* @ap_fifo.str, i32 0, i32 0, [1 x i8]* @.str91, i32 0, i32 0, [1 x i8]* @.str92, [1 x i8]* @.str93, [1 x i8]* @.str94, i32 2, i32 2, i32 16, i32 16, [1 x i8]* @.str95, [1 x i8]* @.str96)
  %tmp2 = alloca i89, align 8                     ; [#uses=2 type=i89*]
  %tmp.V = alloca i16, align 2                    ; [#uses=2 type=i16*]
  %tmp.V.1 = alloca i8, align 1                   ; [#uses=2 type=i8*]
  %tmp.V.2 = alloca i8, align 1                   ; [#uses=2 type=i8*]
  call void @llvm.dbg.value(metadata !{i89* %input.V}, i64 0, metadata !8028), !dbg !8035 ; [debug line = 39:35] [debug variable = input.V]
  call void @llvm.dbg.value(metadata !{[512 x i64]* %buffer_storage.V}, i64 0, metadata !8036), !dbg !8038 ; [debug line = 40:26] [debug variable = buffer_storage.V]
  call void @llvm.dbg.value(metadata !{i16* %length_stream.V.V}, i64 0, metadata !8039), !dbg !8042 ; [debug line = 41:41] [debug variable = length_stream.V.V]
  call void @llvm.dbg.value(metadata !{i8* %dest_stream.V.V}, i64 0, metadata !8043), !dbg !8046 ; [debug line = 42:40] [debug variable = dest_stream.V.V]
  call void @llvm.dbg.value(metadata !{i8* %src_stream.V.V}, i64 0, metadata !8047), !dbg !8049 ; [debug line = 43:40] [debug variable = src_stream.V.V]
  br label %1, !dbg !8050                         ; [debug line = 55:13]

; <label>:1                                       ; preds = %5, %0
  %i = phi i10 [ 0, %0 ], [ %i.2, %5 ]            ; [#uses=4 type=i10]
  %tmp = icmp sgt i10 %i, -1, !dbg !8050          ; [#uses=1 type=i1] [debug line = 55:13]
  %2 = call i32 (...)* @_ssdm_op_SpecLoopTripCount(i64 1, i64 512, i64 256) ; [#uses=0 type=i32]
  br i1 %tmp, label %3, label %.loopexit.loopexit, !dbg !8050 ; [debug line = 55:13]

; <label>:3                                       ; preds = %1
  call void (...)* @_ssdm_op_SpecLoopName([11 x i8]* @.str) nounwind, !dbg !8053 ; [debug line = 55:30]
  %tmp.4 = call i32 (...)* @_ssdm_op_SpecRegionBegin([11 x i8]* @.str), !dbg !8053 ; [#uses=1 type=i32] [debug line = 55:30]
  call void (...)* @_ssdm_op_SpecPipeline(i32 1, i32 1, i32 1, i32 0, [1 x i8]* @.str1) nounwind, !dbg !8055 ; [debug line = 56:1]
  call void @llvm.dbg.declare(metadata !{i89* %tmp2}, metadata !8056), !dbg !8065 ; [debug line = 130:22@57:6] [debug variable = tmp2]
  call void @"_ssdm_op_IfRead.Stream.%\22struct.galapagos::stream_packet.12\22 = type { %struct.ap_uint.4, %struct.ap_uint.0.7, %struct.ap_uint.3.10, %struct.ap_uint.0.7, %struct.ap_uint.0.7 }P.%\22struct.galapagos::stream_packet.12\22 = type { %struct.ap_uint.4, %struct.ap_uint.0.7, %struct.ap_uint.3.10, %struct.ap_uint.0.7, %struct.ap_uint.0.7 }P"(i89* %input.V, i89* %tmp2)
  call void @llvm.dbg.value(metadata !{i89* %tmp2}, i64 0, metadata !8056), !dbg !8067 ; [debug line = 281:5@38:12@57:6] [debug variable = tmp2]
  call void @llvm.dbg.value(metadata !{i89* %tmp2}, i64 0, metadata !8056), !dbg !8067 ; [debug line = 281:5@38:12@57:6] [debug variable = tmp2]
  %tmp.data.V.load.new = load i89* %tmp2, align 8, !dbg !8067 ; [#uses=3 type=i89] [debug line = 281:5@38:12@57:6]
  %tmp.data.V.load.new3 = call i64 @_ssdm_op_PartSelect.i64.i89.i32.i32(i89 %tmp.data.V.load.new, i32 0, i32 63), !dbg !8067 ; [#uses=1 type=i64] [debug line = 281:5@38:12@57:6]
  %tmp.last.V.load.new = call i1 @_ssdm_op_PartSelect.i1.i89.i32.i32(i89 %tmp.data.V.load.new, i32 72, i32 72), !dbg !8071 ; [#uses=1 type=i1] [debug line = 281:5@38:12@57:6]
  %tmp.6 = zext i10 %i to i64, !dbg !8072         ; [#uses=1 type=i64] [debug line = 61:9]
  %buffer_storage.V.addr = getelementptr [512 x i64]* %buffer_storage.V, i64 0, i64 %tmp.6, !dbg !8073 ; [#uses=1 type=i64*] [debug line = 281:5@61:9]
  store i64 %tmp.data.V.load.new3, i64* %buffer_storage.V.addr, align 8, !dbg !8073 ; [debug line = 281:5@61:9]
  br i1 %tmp.last.V.load.new, label %4, label %5, !dbg !8074 ; [debug line = 62:12]

; <label>:4                                       ; preds = %3
  %tmp.data.V.load.new.lcssa = phi i89 [ %tmp.data.V.load.new, %3 ] ; [#uses=2 type=i89]
  %i.lcssa1 = phi i10 [ %i, %3 ]                  ; [#uses=1 type=i10]
  %tmp.V.4 = call i8 @_ssdm_op_PartSelect.i8.i89.i32.i32(i89 %tmp.data.V.load.new.lcssa, i32 64, i32 71), !dbg !8075 ; [#uses=1 type=i8] [debug line = 281:5@38:12@57:6]
  %tmp.V.5 = call i8 @_ssdm_op_PartSelect.i8.i89.i32.i32(i89 %tmp.data.V.load.new.lcssa, i32 73, i32 80), !dbg !8075 ; [#uses=1 type=i8] [debug line = 281:5@38:12@57:6]
  %tmp.V.3 = add i10 %i.lcssa1, 1, !dbg !8076     ; [#uses=1 type=i10] [debug line = 253:60@253:75@63:13]
  %tmp.V.6 = zext i10 %tmp.V.3 to i16, !dbg !8076 ; [#uses=1 type=i16] [debug line = 253:60@253:75@63:13]
  call void @llvm.dbg.value(metadata !{i16* %length_stream.V.V}, i64 0, metadata !8083), !dbg !8088 ; [debug line = 144:48@63:13] [debug variable = stream<ap_uint<16> >.V.V]
  call void @llvm.dbg.declare(metadata !{i16* %tmp.V}, metadata !8089), !dbg !8092 ; [debug line = 145:22@63:13] [debug variable = tmp.V]
  call void @llvm.dbg.value(metadata !{i10 %tmp.V.3}, i64 0, metadata !8089), !dbg !8093 ; [debug line = 145:31@63:13] [debug variable = tmp.V]
  call void @llvm.dbg.value(metadata !{i16 %tmp.V.6}, i64 0, metadata !8089), !dbg !8093 ; [debug line = 145:31@63:13] [debug variable = tmp.V]
  call void @llvm.dbg.value(metadata !{i16 %tmp.V.6}, i64 0, metadata !8089), !dbg !8093 ; [debug line = 145:31@63:13] [debug variable = tmp.V]
  store i16 %tmp.V.6, i16* %tmp.V, align 2, !dbg !8093 ; [debug line = 145:31@63:13]
  call void @"_ssdm_op_IfWrite.Stream.%struct.ap_uint.7.16 = type { %struct.ap_int_base.8.15 }P.%struct.ap_uint.7.16 = type { %struct.ap_int_base.8.15 }P"(i16* %length_stream.V.V, i16* %tmp.V), !dbg !8094 ; [debug line = 146:9@63:13]
  call void @llvm.dbg.value(metadata !{i8* %dest_stream.V.V}, i64 0, metadata !8095), !dbg !8100 ; [debug line = 144:48@64:13] [debug variable = stream<ap_uint<8> >.V.V]
  call void @llvm.dbg.declare(metadata !{i8* %tmp.V.1}, metadata !8102), !dbg !8105 ; [debug line = 145:22@64:13] [debug variable = tmp.V]
  call void @llvm.dbg.value(metadata !{i8 %tmp.V.4}, i64 0, metadata !8102), !dbg !8106 ; [debug line = 145:31@64:13] [debug variable = tmp.V]
  call void @llvm.dbg.value(metadata !{i8 %tmp.V.4}, i64 0, metadata !8102), !dbg !8106 ; [debug line = 145:31@64:13] [debug variable = tmp.V]
  store i8 %tmp.V.4, i8* %tmp.V.1, align 1, !dbg !8106 ; [debug line = 145:31@64:13]
  call void @"_ssdm_op_IfWrite.Stream.%struct.ap_uint.0.7 = type { %struct.ap_int_base.1.6 }P.%struct.ap_uint.0.7 = type { %struct.ap_int_base.1.6 }P"(i8* %dest_stream.V.V, i8* %tmp.V.1), !dbg !8107 ; [debug line = 146:9@64:13]
  call void @llvm.dbg.value(metadata !{i8* %src_stream.V.V}, i64 0, metadata !8095), !dbg !8108 ; [debug line = 144:48@65:13] [debug variable = stream<ap_uint<8> >.V.V]
  call void @llvm.dbg.declare(metadata !{i8* %tmp.V.2}, metadata !8102), !dbg !8110 ; [debug line = 145:22@65:13] [debug variable = tmp.V]
  call void @llvm.dbg.value(metadata !{i8 %tmp.V.5}, i64 0, metadata !8102), !dbg !8111 ; [debug line = 145:31@65:13] [debug variable = tmp.V]
  call void @llvm.dbg.value(metadata !{i8 %tmp.V.5}, i64 0, metadata !8102), !dbg !8111 ; [debug line = 145:31@65:13] [debug variable = tmp.V]
  store i8 %tmp.V.5, i8* %tmp.V.2, align 1, !dbg !8111 ; [debug line = 145:31@65:13]
  call void @"_ssdm_op_IfWrite.Stream.%struct.ap_uint.0.7 = type { %struct.ap_int_base.1.6 }P.%struct.ap_uint.0.7 = type { %struct.ap_int_base.1.6 }P"(i8* %src_stream.V.V, i8* %tmp.V.2), !dbg !8112 ; [debug line = 146:9@65:13]
  br label %.loopexit, !dbg !8113                 ; [debug line = 66:10]

; <label>:5                                       ; preds = %3
  %6 = call i32 (...)* @_ssdm_op_SpecRegionEnd([11 x i8]* @.str, i32 %tmp.4), !dbg !8114 ; [#uses=0 type=i32] [debug line = 68:5]
  %i.2 = add i10 %i, 1, !dbg !8115                ; [#uses=1 type=i10] [debug line = 55:25]
  call void @llvm.dbg.value(metadata !{i10 %i.2}, i64 0, metadata !8116), !dbg !8115 ; [debug line = 55:25] [debug variable = i]
  br label %1, !dbg !8115                         ; [debug line = 55:25]

.loopexit.loopexit:                               ; preds = %1
  br label %.loopexit

.loopexit:                                        ; preds = %.loopexit.loopexit, %4
  ret void, !dbg !8117                            ; [debug line = 69:1]
}

; [#uses=1]
define internal fastcc void @g2N_egress(i73* %output.V, [512 x i64]* nocapture %buffer_storage.V, i16* %length_stream.V.V, i8* %dest_stream.V.V, i8* %src_stream.V.V) {
_ZlsILi16ELb0EE11ap_int_baseIXT_EXT0_EXleT_Li64EEERKS1_i.exit:
  call void (...)* @_ssdm_op_SpecMemCore([512 x i64]* %buffer_storage.V, [1 x i8]* @.str1, [7 x i8]* @.str10, [1 x i8]* @.str1, i32 -1, [1 x i8]* @.str1, [1 x i8]* @.str1, [1 x i8]* @.str1, [1 x i8]* @.str1, [1 x i8]* @.str1)
  call void (...)* @_ssdm_op_SpecIFCore(i73* %output.V, [1 x i8]* @.str1, [11 x i8]* @.str5, [1 x i8]* @.str1, i32 -1, [1 x i8]* @.str1, [1 x i8]* @.str1, [1 x i8]* @.str1, [1 x i8]* @.str1, [23 x i8]* @.str6)
  call void (...)* @_ssdm_op_SpecInterface(i73* %output.V, [8 x i8]* @ap_fifo.str, i32 0, i32 0, [1 x i8]* @.str97, i32 0, i32 0, [1 x i8]* @.str98, [1 x i8]* @.str99, [1 x i8]* @.str100, i32 2, i32 2, i32 16, i32 16, [1 x i8]* @.str101, [1 x i8]* @.str102)
  %tmp.16 = alloca i73, align 8                   ; [#uses=2 type=i73*]
  %tmp = alloca i73, align 8                      ; [#uses=2 type=i73*]
  %tmp.V = alloca i16, align 2                    ; [#uses=3 type=i16*]
  %tmp.V.3 = alloca i8, align 1                   ; [#uses=2 type=i8*]
  %tmp.V.4 = alloca i8, align 1                   ; [#uses=2 type=i8*]
  call void @llvm.dbg.value(metadata !{i73* %output.V}, i64 0, metadata !8118), !dbg !8126 ; [debug line = 72:41] [debug variable = output.V]
  call void @llvm.dbg.value(metadata !{[512 x i64]* %buffer_storage.V}, i64 0, metadata !8127), !dbg !8129 ; [debug line = 73:29] [debug variable = buffer_storage.V]
  call void @llvm.dbg.value(metadata !{i16* %length_stream.V.V}, i64 0, metadata !8130), !dbg !8132 ; [debug line = 74:45] [debug variable = length_stream.V.V]
  call void @llvm.dbg.value(metadata !{i8* %dest_stream.V.V}, i64 0, metadata !8133), !dbg !8135 ; [debug line = 75:44] [debug variable = dest_stream.V.V]
  call void @llvm.dbg.value(metadata !{i8* %src_stream.V.V}, i64 0, metadata !8136), !dbg !8138 ; [debug line = 76:44] [debug variable = src_stream.V.V]
  call void @llvm.dbg.value(metadata !{i16* %length_stream.V.V}, i64 0, metadata !8139), !dbg !8142 ; [debug line = 129:56@86:23] [debug variable = stream<ap_uint<16> >.V.V]
  call void @llvm.dbg.declare(metadata !{i16* %tmp.V}, metadata !8145), !dbg !8148 ; [debug line = 130:22@86:23] [debug variable = tmp.V]
  call void @"_ssdm_op_IfRead.Stream.%struct.ap_uint.7.16 = type { %struct.ap_int_base.8.15 }P.%struct.ap_uint.7.16 = type { %struct.ap_int_base.8.15 }P"(i16* %length_stream.V.V, i16* %tmp.V), !dbg !8149 ; [debug line = 131:9@86:23]
  call void @llvm.dbg.value(metadata !{i8* %dest_stream.V.V}, i64 0, metadata !8150), !dbg !8153 ; [debug line = 129:56@87:23] [debug variable = stream<ap_uint<8> >.V.V]
  call void @llvm.dbg.declare(metadata !{i8* %tmp.V.3}, metadata !8155), !dbg !8158 ; [debug line = 130:22@87:23] [debug variable = tmp.V]
  call void @"_ssdm_op_IfRead.Stream.%struct.ap_uint.0.7 = type { %struct.ap_int_base.1.6 }P.%struct.ap_uint.0.7 = type { %struct.ap_int_base.1.6 }P"(i8* %dest_stream.V.V, i8* %tmp.V.3), !dbg !8159 ; [debug line = 131:9@87:23]
  call void @llvm.dbg.value(metadata !{i8* %src_stream.V.V}, i64 0, metadata !8150), !dbg !8160 ; [debug line = 129:56@88:22] [debug variable = stream<ap_uint<8> >.V.V]
  call void @llvm.dbg.declare(metadata !{i8* %tmp.V.4}, metadata !8155), !dbg !8162 ; [debug line = 130:22@88:22] [debug variable = tmp.V]
  call void @"_ssdm_op_IfRead.Stream.%struct.ap_uint.0.7 = type { %struct.ap_int_base.1.6 }P.%struct.ap_uint.0.7 = type { %struct.ap_int_base.1.6 }P"(i8* %src_stream.V.V, i8* %tmp.V.4), !dbg !8163 ; [debug line = 131:9@88:22]
  call void @llvm.dbg.value(metadata !{i8* %tmp.V.3}, i64 0, metadata !8155), !dbg !8164 ; [debug line = 1506:93@1506:109@957:39@91:5] [debug variable = tmp.V]
  call void @llvm.dbg.value(metadata !{i8* %tmp.V.3}, i64 0, metadata !8155), !dbg !8164 ; [debug line = 1506:93@1506:109@957:39@91:5] [debug variable = tmp.V]
  %tmp.V.3.load = load i8* %tmp.V.3, align 1, !dbg !8164 ; [#uses=1 type=i8] [debug line = 1506:93@1506:109@957:39@91:5]
  call void @llvm.dbg.value(metadata !{i8* %tmp.V.4}, i64 0, metadata !8155), !dbg !8177 ; [debug line = 1506:93@1506:109@957:39@92:5] [debug variable = tmp.V]
  call void @llvm.dbg.value(metadata !{i8* %tmp.V.4}, i64 0, metadata !8155), !dbg !8177 ; [debug line = 1506:93@1506:109@957:39@92:5] [debug variable = tmp.V]
  %tmp.V.4.load = load i8* %tmp.V.4, align 1, !dbg !8177 ; [#uses=1 type=i8] [debug line = 1506:93@1506:109@957:39@92:5]
  call void @llvm.dbg.value(metadata !{i16* %tmp.V}, i64 0, metadata !8145), !dbg !8181 ; [debug line = 3635:198@93:30] [debug variable = tmp.V]
  call void @llvm.dbg.value(metadata !{i16* %tmp.V}, i64 0, metadata !8145), !dbg !8181 ; [debug line = 3635:198@93:30] [debug variable = tmp.V]
  %tmp.V.load = load i16* %tmp.V, align 2, !dbg !8181 ; [#uses=1 type=i16] [debug line = 3635:198@93:30]
  %r.V = shl i16 %tmp.V.load, 3, !dbg !8181       ; [#uses=1 type=i16] [debug line = 3635:198@93:30]
  call void @llvm.dbg.value(metadata !{i16 %r.V}, i64 0, metadata !8187), !dbg !8181 ; [debug line = 3635:198@93:30] [debug variable = r.V]
  call void @llvm.dbg.declare(metadata !{i73* %tmp}, metadata !8189), !dbg !8196 ; [debug line = 145:22@103:2] [debug variable = tmp]
  call void @llvm.dbg.value(metadata !{i73* %tmp}, i64 0, metadata !8189), !dbg !8198 ; [debug line = 145:31@103:2] [debug variable = tmp]
  %tmp.5 = call i72 @_ssdm_op_BitConcatenate.i72.i40.i8.i8.i16(i40 -4294967296, i8 %tmp.V.3.load, i8 %tmp.V.4.load, i16 %r.V), !dbg !8198 ; [#uses=1 type=i72] [debug line = 145:31@103:2]
  %tmp.3 = call i73 @_ssdm_op_PartSet.i73.i73.i72.i32.i32(i73 undef, i72 %tmp.5, i32 0, i32 71), !dbg !8198 ; [#uses=1 type=i73] [debug line = 145:31@103:2]
  call void @llvm.dbg.value(metadata !{i73 %tmp.3}, i64 0, metadata !8189), !dbg !8198 ; [debug line = 145:31@103:2] [debug variable = tmp]
  call void @llvm.dbg.value(metadata !{i73 %tmp.3}, i64 0, metadata !8189), !dbg !8198 ; [debug line = 145:31@103:2] [debug variable = tmp]
  store i73 %tmp.3, i73* %tmp, align 8, !dbg !8198 ; [debug line = 145:31@103:2]
  call void @"_ssdm_op_IfWrite.Stream.%struct.ap_axis_net.11 = type { %struct.ap_uint.4, %struct.ap_uint.0.7, %struct.ap_uint.3.10 }P.%struct.ap_axis_net.11 = type { %struct.ap_uint.4, %struct.ap_uint.0.7, %struct.ap_uint.3.10 }P"(i73* %output.V, i73* %tmp)
  br label %0, !dbg !8199                         ; [debug line = 108:16]

; <label>:0                                       ; preds = %1, %_ZlsILi16ELb0EE11ap_int_baseIXT_EXT0_EXleT_Li64EEERKS1_i.exit
  %i = phi i32 [ 0, %_ZlsILi16ELb0EE11ap_int_baseIXT_EXT0_EXleT_Li64EEERKS1_i.exit ], [ %i.3, %1 ] ; [#uses=4 type=i32]
  call void @llvm.dbg.value(metadata !{i16* %tmp.V}, i64 0, metadata !8145), !dbg !8201 ; [debug line = 1710:68@108:20] [debug variable = tmp.V]
  call void @llvm.dbg.value(metadata !{i16* %tmp.V}, i64 0, metadata !8145), !dbg !8201 ; [debug line = 1710:68@108:20] [debug variable = tmp.V]
  %tmp.V.load.1 = load i16* %tmp.V, align 2, !dbg !8201 ; [#uses=2 type=i16] [debug line = 1710:68@108:20]
  %tmp. = zext i16 %tmp.V.load.1 to i32, !dbg !8204 ; [#uses=1 type=i32] [debug line = 108:20]
  %tmp.1 = icmp slt i32 %i, %tmp., !dbg !8204     ; [#uses=1 type=i1] [debug line = 108:20]
  br i1 %tmp.1, label %1, label %3, !dbg !8204    ; [debug line = 108:20]

; <label>:1                                       ; preds = %0
  call void (...)* @_ssdm_op_SpecLoopName([10 x i8]* @.str2) nounwind, !dbg !8205 ; [debug line = 108:34]
  %tmp.7 = call i32 (...)* @_ssdm_op_SpecRegionBegin([10 x i8]* @.str2), !dbg !8205 ; [#uses=1 type=i32] [debug line = 108:34]
  call void (...)* @_ssdm_op_SpecPipeline(i32 1, i32 1, i32 1, i32 0, [1 x i8]* @.str1) nounwind, !dbg !8207 ; [debug line = 109:1]
  %tmp.2 = sext i32 %i to i64, !dbg !8208         ; [#uses=1 type=i64] [debug line = 110:2]
  %buffer_storage.V.addr = getelementptr [512 x i64]* %buffer_storage.V, i64 0, i64 %tmp.2, !dbg !8209 ; [#uses=1 type=i64*] [debug line = 281:5@110:2]
  %n.data.V = load i64* %buffer_storage.V.addr, align 8, !dbg !8209 ; [#uses=1 type=i64] [debug line = 281:5@110:2]
  call void @llvm.dbg.value(metadata !{i64 %n.data.V}, i64 0, metadata !8210), !dbg !8209 ; [debug line = 281:5@110:2] [debug variable = n.data.V]
  %lhs.V.cast = zext i16 %tmp.V.load.1 to i17, !dbg !8212 ; [#uses=1 type=i17] [debug line = 1506:93@1506:109@3425:0@3523:0@111:25]
  %r.V.1 = add i17 %lhs.V.cast, -1, !dbg !8217    ; [#uses=1 type=i17] [debug line = 3425:0@3523:0@111:25]
  call void @llvm.dbg.value(metadata !{i17 %r.V.1}, i64 0, metadata !8231), !dbg !8217 ; [debug line = 3425:0@3523:0@111:25] [debug variable = r.V]
  %tmp.3.cast = sext i17 %r.V.1 to i32, !dbg !8230 ; [#uses=1 type=i32] [debug line = 111:25]
  %val.assign = icmp eq i32 %i, %tmp.3.cast, !dbg !8230 ; [#uses=1 type=i1] [debug line = 111:25]
  call void @llvm.dbg.value(metadata !{i1 %val.assign}, i64 0, metadata !8238), !dbg !8240 ; [debug line = 248:54@111:25] [debug variable = val]
  call void @llvm.dbg.value(metadata !{i1 %val.assign}, i64 0, metadata !8241), !dbg !8243 ; [debug line = 248:54@248:76@111:25] [debug variable = val]
  call void @llvm.dbg.value(metadata !{i1 %val.assign}, i64 0, metadata !8245), !dbg !8246 ; [debug line = 281:5@111:25] [debug variable = n.last.V]
  call void @llvm.dbg.declare(metadata !{i73* %tmp.16}, metadata !8247), !dbg !8248 ; [debug line = 145:22@112:9] [debug variable = tmp.16]
  call void @llvm.dbg.value(metadata !{i64 %n.data.V}, i64 0, metadata !8193), !dbg !8250 ; [debug line = 145:31@112:9] [debug variable = tmp.data.V]
  call void @llvm.dbg.value(metadata !{i73* %tmp.16}, i64 0, metadata !8247), !dbg !8250 ; [debug line = 145:31@112:9] [debug variable = tmp.16]
  call void @llvm.dbg.value(metadata !{i1 %val.assign}, i64 0, metadata !8195), !dbg !8250 ; [debug line = 145:31@112:9] [debug variable = tmp.last.V]
  %tmp.16.1 = call i73 @_ssdm_op_BitConcatenate.i73.i1.i8.i64(i1 %val.assign, i8 -1, i64 %n.data.V), !dbg !8250 ; [#uses=1 type=i73] [debug line = 145:31@112:9]
  call void @llvm.dbg.value(metadata !{i73 %tmp.16.1}, i64 0, metadata !8247), !dbg !8250 ; [debug line = 145:31@112:9] [debug variable = tmp.16]
  call void @llvm.dbg.value(metadata !{i73 %tmp.16.1}, i64 0, metadata !8247), !dbg !8250 ; [debug line = 145:31@112:9] [debug variable = tmp.16]
  store i73 %tmp.16.1, i73* %tmp.16, align 8, !dbg !8250 ; [debug line = 145:31@112:9]
  call void @"_ssdm_op_IfWrite.Stream.%struct.ap_axis_net.11 = type { %struct.ap_uint.4, %struct.ap_uint.0.7, %struct.ap_uint.3.10 }P.%struct.ap_axis_net.11 = type { %struct.ap_uint.4, %struct.ap_uint.0.7, %struct.ap_uint.3.10 }P"(i73* %output.V, i73* %tmp.16)
  %2 = call i32 (...)* @_ssdm_op_SpecRegionEnd([10 x i8]* @.str2, i32 %tmp.7), !dbg !8251 ; [#uses=0 type=i32] [debug line = 116:5]
  %i.3 = add nsw i32 %i, 1, !dbg !8252            ; [#uses=1 type=i32] [debug line = 108:29]
  call void @llvm.dbg.value(metadata !{i32 %i.3}, i64 0, metadata !8253), !dbg !8252 ; [debug line = 108:29] [debug variable = i]
  br label %0, !dbg !8252                         ; [debug line = 108:29]

; <label>:3                                       ; preds = %0
  ret void, !dbg !8254                            ; [debug line = 118:1]
}

; [#uses=1]
declare void @_ssdm_op_SpecTopModule(...)

; [#uses=3]
declare i32 @_ssdm_op_SpecRegionEnd(...)

; [#uses=3]
declare i32 @_ssdm_op_SpecRegionBegin(...)

; [#uses=3]
declare void @_ssdm_op_SpecPipeline(...) nounwind

; [#uses=4]
declare void @_ssdm_op_SpecMemCore(...)

; [#uses=2]
declare i32 @_ssdm_op_SpecLoopTripCount(...)

; [#uses=3]
declare void @_ssdm_op_SpecLoopName(...) nounwind

; [#uses=9]
declare void @_ssdm_op_SpecInterface(...) nounwind

; [#uses=8]
declare void @_ssdm_op_SpecIFCore(...)

; [#uses=1]
declare void @_ssdm_op_SpecDataflowPipeline(...) nounwind

; [#uses=6]
declare void @_ssdm_op_SpecBitsMap(...)

; [#uses=1]
declare i73 @_ssdm_op_PartSet.i73.i73.i72.i32.i32(i73, i72, i32, i32) nounwind readnone

; [#uses=2]
declare i8 @_ssdm_op_PartSelect.i8.i89.i32.i32(i89, i32, i32) nounwind readnone

; [#uses=3]
declare i8 @_ssdm_op_PartSelect.i8.i73.i32.i32(i73, i32, i32) nounwind readnone

; [#uses=1]
declare i64 @_ssdm_op_PartSelect.i64.i89.i32.i32(i89, i32, i32) nounwind readnone

; [#uses=1]
declare i64 @_ssdm_op_PartSelect.i64.i73.i32.i32(i73, i32, i32) nounwind readnone

; [#uses=1]
declare i1 @_ssdm_op_PartSelect.i1.i89.i32.i32(i89, i32, i32) nounwind readnone

; [#uses=1]
declare i1 @_ssdm_op_PartSelect.i1.i73.i32.i32(i73, i32, i32) nounwind readnone

; [#uses=1]
declare void @"_ssdm_op_IfWrite.Stream.%struct.ap_uint.7.16 = type { %struct.ap_int_base.8.15 }P.%struct.ap_uint.7.16 = type { %struct.ap_int_base.8.15 }P"(i16*, i16*)

; [#uses=2]
declare void @"_ssdm_op_IfWrite.Stream.%struct.ap_uint.0.7 = type { %struct.ap_int_base.1.6 }P.%struct.ap_uint.0.7 = type { %struct.ap_int_base.1.6 }P"(i8*, i8*)

; [#uses=2]
declare void @"_ssdm_op_IfWrite.Stream.%struct.ap_axis_net.11 = type { %struct.ap_uint.4, %struct.ap_uint.0.7, %struct.ap_uint.3.10 }P.%struct.ap_axis_net.11 = type { %struct.ap_uint.4, %struct.ap_uint.0.7, %struct.ap_uint.3.10 }P"(i73*, i73*)

; [#uses=1]
declare void @"_ssdm_op_IfWrite.Stream.%\22struct.galapagos::stream_packet.12\22 = type { %struct.ap_uint.4, %struct.ap_uint.0.7, %struct.ap_uint.3.10, %struct.ap_uint.0.7, %struct.ap_uint.0.7 }P.%\22struct.galapagos::stream_packet.12\22 = type { %struct.ap_uint.4, %struct.ap_uint.0.7, %struct.ap_uint.3.10, %struct.ap_uint.0.7, %struct.ap_uint.0.7 }P"(i89*, i89*)

; [#uses=1]
declare void @"_ssdm_op_IfRead.Stream.%struct.ap_uint.7.16 = type { %struct.ap_int_base.8.15 }P.%struct.ap_uint.7.16 = type { %struct.ap_int_base.8.15 }P"(i16*, i16*)

; [#uses=2]
declare void @"_ssdm_op_IfRead.Stream.%struct.ap_uint.0.7 = type { %struct.ap_int_base.1.6 }P.%struct.ap_uint.0.7 = type { %struct.ap_int_base.1.6 }P"(i8*, i8*)

; [#uses=2]
declare void @"_ssdm_op_IfRead.Stream.%struct.ap_axis_net.11 = type { %struct.ap_uint.4, %struct.ap_uint.0.7, %struct.ap_uint.3.10 }P.%struct.ap_axis_net.11 = type { %struct.ap_uint.4, %struct.ap_uint.0.7, %struct.ap_uint.3.10 }P"(i73*, i73*)

; [#uses=1]
declare void @"_ssdm_op_IfRead.Stream.%\22struct.galapagos::stream_packet.12\22 = type { %struct.ap_uint.4, %struct.ap_uint.0.7, %struct.ap_uint.3.10, %struct.ap_uint.0.7, %struct.ap_uint.0.7 }P.%\22struct.galapagos::stream_packet.12\22 = type { %struct.ap_uint.4, %struct.ap_uint.0.7, %struct.ap_uint.3.10, %struct.ap_uint.0.7, %struct.ap_uint.0.7 }P"(i89*, i89*)

; [#uses=1]
declare i89 @_ssdm_op_BitConcatenate.i89.i8.i8.i1.i8.i64(i8, i8, i1, i8, i64) nounwind readnone

; [#uses=1]
declare i73 @_ssdm_op_BitConcatenate.i73.i1.i8.i64(i1, i8, i64) nounwind readnone

; [#uses=1]
declare i72 @_ssdm_op_BitConcatenate.i72.i40.i8.i8.i16(i40, i8, i8, i16) nounwind readnone

!opencl.kernels = !{!0, !7, !10, !16, !22, !22, !22, !22, !22, !22, !22, !22, !22, !22, !22, !22, !28, !34, !34, !34, !22, !22, !22, !22, !22, !37, !37, !22, !22, !22, !40, !44, !44, !22, !47, !22, !22, !22, !50, !50, !52, !52, !22, !54, !54, !54, !54, !55, !57, !52, !52, !58, !22, !59, !61, !61, !62, !64, !64, !22, !22, !66, !54, !54, !68, !22, !70, !73, !75, !22, !22, !22, !22, !22, !22, !22, !77, !80, !80, !86, !22, !22, !88}
!hls.encrypted.func = !{}
!llvm.map.gv = !{!89}
!llvm.dbg.cu = !{!96}

!0 = metadata !{null, metadata !1, metadata !2, metadata !3, metadata !4, metadata !5, metadata !6}
!1 = metadata !{metadata !"kernel_arg_addr_space", i32 1, i32 1, i32 0, i32 0, i32 0}
!2 = metadata !{metadata !"kernel_arg_access_qual", metadata !"none", metadata !"none", metadata !"none", metadata !"none", metadata !"none"}
!3 = metadata !{metadata !"kernel_arg_type", metadata !"galapagos_interface*", metadata !"ap_uint<8 * 8>*", metadata !"hls::stream<ap_uint<16> > &", metadata !"hls::stream<ap_uint<8> > &", metadata !"hls::stream<ap_uint<8> > &"}
!4 = metadata !{metadata !"kernel_arg_type_qual", metadata !"", metadata !"", metadata !"", metadata !"", metadata !""}
!5 = metadata !{metadata !"kernel_arg_name", metadata !"input", metadata !"buffer_storage", metadata !"length_stream", metadata !"dest_stream", metadata !"src_stream"}
!6 = metadata !{metadata !"reqd_work_group_size", i32 1, i32 1, i32 1}
!7 = metadata !{null, metadata !1, metadata !2, metadata !8, metadata !4, metadata !9, metadata !6}
!8 = metadata !{metadata !"kernel_arg_type", metadata !"hls::stream<netStream>*", metadata !"ap_uint<8 * 8>*", metadata !"hls::stream<ap_uint<16> > &", metadata !"hls::stream<ap_uint<8> > &", metadata !"hls::stream<ap_uint<8> > &"}
!9 = metadata !{metadata !"kernel_arg_name", metadata !"output", metadata !"buffer_storage", metadata !"length_stream", metadata !"dest_stream", metadata !"src_stream"}
!10 = metadata !{null, metadata !11, metadata !12, metadata !13, metadata !14, metadata !15, metadata !6}
!11 = metadata !{metadata !"kernel_arg_addr_space", i32 1, i32 1}
!12 = metadata !{metadata !"kernel_arg_access_qual", metadata !"none", metadata !"none"}
!13 = metadata !{metadata !"kernel_arg_type", metadata !"hls::stream<netStream>*", metadata !"galapagos_interface*"}
!14 = metadata !{metadata !"kernel_arg_type_qual", metadata !"", metadata !""}
!15 = metadata !{metadata !"kernel_arg_name", metadata !"input", metadata !"output"}
!16 = metadata !{null, metadata !17, metadata !18, metadata !19, metadata !20, metadata !21, metadata !6}
!17 = metadata !{metadata !"kernel_arg_addr_space", i32 1, i32 1, i32 1, i32 1, i32 1, i32 1}
!18 = metadata !{metadata !"kernel_arg_access_qual", metadata !"none", metadata !"none", metadata !"none", metadata !"none", metadata !"none", metadata !"none"}
!19 = metadata !{metadata !"kernel_arg_type", metadata !"galapagos_interface*", metadata !"hls::stream<netStream>*", metadata !"ap_uint<8 * 8>*", metadata !"ap_uint<8 * 8>*", metadata !"hls::stream<netStream>*", metadata !"galapagos_interface*"}
!20 = metadata !{metadata !"kernel_arg_type_qual", metadata !"", metadata !"", metadata !"", metadata !"", metadata !"", metadata !""}
!21 = metadata !{metadata !"kernel_arg_name", metadata !"g2N_input", metadata !"g2N_output", metadata !"buffer_storage_A", metadata !"buffer_storage_B", metadata !"n2G_input", metadata !"n2G_output"}
!22 = metadata !{null, metadata !23, metadata !24, metadata !25, metadata !26, metadata !27, metadata !6}
!23 = metadata !{metadata !"kernel_arg_addr_space"}
!24 = metadata !{metadata !"kernel_arg_access_qual"}
!25 = metadata !{metadata !"kernel_arg_type"}
!26 = metadata !{metadata !"kernel_arg_type_qual"}
!27 = metadata !{metadata !"kernel_arg_name"}
!28 = metadata !{null, metadata !29, metadata !30, metadata !31, metadata !32, metadata !33, metadata !6}
!29 = metadata !{metadata !"kernel_arg_addr_space", i32 0}
!30 = metadata !{metadata !"kernel_arg_access_qual", metadata !"none"}
!31 = metadata !{metadata !"kernel_arg_type", metadata !"const struct galapagos::stream_packet<64> &"}
!32 = metadata !{metadata !"kernel_arg_type_qual", metadata !""}
!33 = metadata !{metadata !"kernel_arg_name", metadata !"din"}
!34 = metadata !{null, metadata !29, metadata !30, metadata !35, metadata !32, metadata !36, metadata !6}
!35 = metadata !{metadata !"kernel_arg_type", metadata !"const ap_range_ref<64, false> &"}
!36 = metadata !{metadata !"kernel_arg_name", metadata !"ref"}
!37 = metadata !{null, metadata !29, metadata !30, metadata !38, metadata !32, metadata !39, metadata !6}
!38 = metadata !{metadata !"kernel_arg_type", metadata !"_Bool"}
!39 = metadata !{metadata !"kernel_arg_name", metadata !"val"}
!40 = metadata !{null, metadata !41, metadata !12, metadata !42, metadata !14, metadata !43, metadata !6}
!41 = metadata !{metadata !"kernel_arg_addr_space", i32 0, i32 0}
!42 = metadata !{metadata !"kernel_arg_type", metadata !"const ap_int_base<16, false> &", metadata !"int"}
!43 = metadata !{metadata !"kernel_arg_name", metadata !"op", metadata !"i_op"}
!44 = metadata !{null, metadata !29, metadata !30, metadata !45, metadata !32, metadata !46, metadata !6}
!45 = metadata !{metadata !"kernel_arg_type", metadata !"int"}
!46 = metadata !{metadata !"kernel_arg_name", metadata !"op"}
!47 = metadata !{null, metadata !41, metadata !12, metadata !48, metadata !14, metadata !49, metadata !6}
!48 = metadata !{metadata !"kernel_arg_type", metadata !"const ap_int_base<16, false> &", metadata !"const ap_int_base<32, true> &"}
!49 = metadata !{metadata !"kernel_arg_name", metadata !"op", metadata !"op2"}
!50 = metadata !{null, metadata !29, metadata !30, metadata !51, metadata !32, metadata !46, metadata !6}
!51 = metadata !{metadata !"kernel_arg_type", metadata !"const ap_int_base<32, true> &"}
!52 = metadata !{null, metadata !29, metadata !30, metadata !53, metadata !32, metadata !46, metadata !6}
!53 = metadata !{metadata !"kernel_arg_type", metadata !"const ap_int_base<16, false> &"}
!54 = metadata !{null, metadata !29, metadata !30, metadata !45, metadata !32, metadata !39, metadata !6}
!55 = metadata !{null, metadata !29, metadata !30, metadata !56, metadata !32, metadata !33, metadata !6}
!56 = metadata !{metadata !"kernel_arg_type", metadata !"const struct ap_axis_net<64> &"}
!57 = metadata !{null, metadata !29, metadata !30, metadata !53, metadata !32, metadata !39, metadata !6}
!58 = metadata !{null, metadata !41, metadata !12, metadata !42, metadata !14, metadata !49, metadata !6}
!59 = metadata !{null, metadata !29, metadata !30, metadata !60, metadata !32, metadata !39, metadata !6}
!60 = metadata !{metadata !"kernel_arg_type", metadata !"const ap_int_base<8, false> &"}
!61 = metadata !{null, metadata !29, metadata !30, metadata !60, metadata !32, metadata !46, metadata !6}
!62 = metadata !{null, metadata !29, metadata !30, metadata !63, metadata !32, metadata !39, metadata !6}
!63 = metadata !{metadata !"kernel_arg_type", metadata !"ulong long"}
!64 = metadata !{null, metadata !29, metadata !30, metadata !65, metadata !32, metadata !46, metadata !6}
!65 = metadata !{metadata !"kernel_arg_type", metadata !"ap_ulong"}
!66 = metadata !{null, metadata !29, metadata !30, metadata !67, metadata !32, metadata !33, metadata !6}
!67 = metadata !{metadata !"kernel_arg_type", metadata !"const struct ap_uint<8> &"}
!68 = metadata !{null, metadata !29, metadata !30, metadata !69, metadata !32, metadata !33, metadata !6}
!69 = metadata !{metadata !"kernel_arg_type", metadata !"const struct ap_uint<16> &"}
!70 = metadata !{null, metadata !29, metadata !30, metadata !71, metadata !32, metadata !72, metadata !6}
!71 = metadata !{metadata !"kernel_arg_type", metadata !"const ap_uint<1> &"}
!72 = metadata !{metadata !"kernel_arg_name", metadata !"op2"}
!73 = metadata !{null, metadata !29, metadata !30, metadata !74, metadata !32, metadata !72, metadata !6}
!74 = metadata !{metadata !"kernel_arg_type", metadata !"const ap_uint<8> &"}
!75 = metadata !{null, metadata !29, metadata !30, metadata !76, metadata !32, metadata !72, metadata !6}
!76 = metadata !{metadata !"kernel_arg_type", metadata !"const ap_uint<64> &"}
!77 = metadata !{null, metadata !41, metadata !12, metadata !78, metadata !14, metadata !79, metadata !6}
!78 = metadata !{metadata !"kernel_arg_type", metadata !"int", metadata !"int"}
!79 = metadata !{metadata !"kernel_arg_name", metadata !"Hi", metadata !"Lo"}
!80 = metadata !{null, metadata !81, metadata !82, metadata !83, metadata !84, metadata !85, metadata !6}
!81 = metadata !{metadata !"kernel_arg_addr_space", i32 1, i32 0, i32 0}
!82 = metadata !{metadata !"kernel_arg_access_qual", metadata !"none", metadata !"none", metadata !"none"}
!83 = metadata !{metadata !"kernel_arg_type", metadata !"ap_int_base<64, false>*", metadata !"int", metadata !"int"}
!84 = metadata !{metadata !"kernel_arg_type_qual", metadata !"", metadata !"", metadata !""}
!85 = metadata !{metadata !"kernel_arg_name", metadata !"bv", metadata !"h", metadata !"l"}
!86 = metadata !{null, metadata !29, metadata !30, metadata !56, metadata !32, metadata !87, metadata !6}
!87 = metadata !{metadata !"kernel_arg_name", metadata !""}
!88 = metadata !{null, metadata !29, metadata !30, metadata !31, metadata !32, metadata !87, metadata !6}
!89 = metadata !{metadata !90, [0 x i32]* @llvm.global_ctors.0}
!90 = metadata !{metadata !91}
!91 = metadata !{i32 0, i32 31, metadata !92}
!92 = metadata !{metadata !93}
!93 = metadata !{metadata !"llvm.global_ctors.0", metadata !94, metadata !"", i32 0, i32 31}
!94 = metadata !{metadata !95}
!95 = metadata !{i32 0, i32 0, i32 1}
!96 = metadata !{i32 786449, i32 0, i32 4, metadata !"/home/user/galapagos/hlsBuild/adm-8k5-debug/ip/galapagos_bridge/solution1/.autopilot/db/galapagos_bridge.pragma.2.cpp", metadata !"/home/user/galapagos/middleware/hls/galapagos_bridge", metadata !"clang version 3.1 ", i1 true, i1 false, metadata !"", i32 0, metadata !97, null, metadata !120, metadata !4527} ; [ DW_TAG_compile_unit ]
!97 = metadata !{i32 786436, metadata !98, metadata !"_Ios_Fmtflags", metadata !99, i32 52, i64 17, i64 32, i32 0, i32 0, null, metadata !100, i32 0, i32 0} ; [ DW_TAG_enumeration_type ]
!98 = metadata !{i32 786489, null, metadata !"std", metadata !99, i32 44} ; [ DW_TAG_namespace ]
!99 = metadata !{i32 786473, metadata !"/opt/Xilinx/Vivado/2018.1/lnx64/tools/gcc/lib/gcc/x86_64-unknown-linux-gnu/4.6.3/../../../../include/c++/4.6.3/bits/ios_base.h", metadata !"/home/user/galapagos/middleware/hls/galapagos_bridge", null} ; [ DW_TAG_file_type ]
!100 = metadata !{metadata !101, metadata !102, metadata !103, metadata !104, metadata !105, metadata !106, metadata !107, metadata !108, metadata !109, metadata !110, metadata !111, metadata !112, metadata !113, metadata !114, metadata !115, metadata !116, metadata !117, metadata !118, metadata !119}
!101 = metadata !{i32 786472, metadata !"_S_boolalpha", i64 1} ; [ DW_TAG_enumerator ]
!102 = metadata !{i32 786472, metadata !"_S_dec", i64 2} ; [ DW_TAG_enumerator ]
!103 = metadata !{i32 786472, metadata !"_S_fixed", i64 4} ; [ DW_TAG_enumerator ]
!104 = metadata !{i32 786472, metadata !"_S_hex", i64 8} ; [ DW_TAG_enumerator ]
!105 = metadata !{i32 786472, metadata !"_S_internal", i64 16} ; [ DW_TAG_enumerator ]
!106 = metadata !{i32 786472, metadata !"_S_left", i64 32} ; [ DW_TAG_enumerator ]
!107 = metadata !{i32 786472, metadata !"_S_oct", i64 64} ; [ DW_TAG_enumerator ]
!108 = metadata !{i32 786472, metadata !"_S_right", i64 128} ; [ DW_TAG_enumerator ]
!109 = metadata !{i32 786472, metadata !"_S_scientific", i64 256} ; [ DW_TAG_enumerator ]
!110 = metadata !{i32 786472, metadata !"_S_showbase", i64 512} ; [ DW_TAG_enumerator ]
!111 = metadata !{i32 786472, metadata !"_S_showpoint", i64 1024} ; [ DW_TAG_enumerator ]
!112 = metadata !{i32 786472, metadata !"_S_showpos", i64 2048} ; [ DW_TAG_enumerator ]
!113 = metadata !{i32 786472, metadata !"_S_skipws", i64 4096} ; [ DW_TAG_enumerator ]
!114 = metadata !{i32 786472, metadata !"_S_unitbuf", i64 8192} ; [ DW_TAG_enumerator ]
!115 = metadata !{i32 786472, metadata !"_S_uppercase", i64 16384} ; [ DW_TAG_enumerator ]
!116 = metadata !{i32 786472, metadata !"_S_adjustfield", i64 176} ; [ DW_TAG_enumerator ]
!117 = metadata !{i32 786472, metadata !"_S_basefield", i64 74} ; [ DW_TAG_enumerator ]
!118 = metadata !{i32 786472, metadata !"_S_floatfield", i64 260} ; [ DW_TAG_enumerator ]
!119 = metadata !{i32 786472, metadata !"_S_ios_fmtflags_end", i64 65536} ; [ DW_TAG_enumerator ]
!120 = metadata !{i32 786478, i32 0, metadata !121, metadata !"g2N_ingress", metadata !"g2N_ingress", metadata !"_Z11g2N_ingressPN3hls6streamIN9galapagos13stream_packetILi64EEEEEP7ap_uintILi64EERNS0_IS6_ILi16EEEERNS0_IS6_ILi8EEEESE_", metadata !121, i32 38, metadata !122, i1 false, i1 true, i32 0, i32 0, null, i32 256, i1 false, null, null, null, metadata !153, i32 44} ; [ DW_TAG_subprogram ]
!121 = metadata !{i32 786473, metadata !"/home/user/galapagos/middleware/hls/galapagos_bridge/src/galapagos_bridge.cpp", metadata !"/home/user/galapagos/middleware/hls/galapagos_bridge", null} ; [ DW_TAG_file_type ]
!122 = metadata !{i32 786453, i32 0, metadata !"", i32 0, i32 0, i64 0, i64 0, i64 0, i32 0, null, metadata !123, i32 0, i32 0} ; [ DW_TAG_subroutine_type ]
!123 = metadata !{null, metadata !124, metadata !3823, metadata !3824, metadata !4481, metadata !4481}
!124 = metadata !{i32 786447, null, metadata !"", null, i32 0, i64 64, i64 64, i64 0, i32 0, metadata !125} ; [ DW_TAG_pointer_type ]
!125 = metadata !{i32 786454, null, metadata !"galapagos_interface", metadata !121, i32 60, i64 0, i64 0, i64 0, i32 0, metadata !126} ; [ DW_TAG_typedef ]
!126 = metadata !{i32 786434, metadata !127, metadata !"stream<galapagos::stream_packet<64> >", metadata !128, i32 79, i64 128, i64 64, i32 0, i32 0, null, metadata !129, i32 0, null, metadata !3821} ; [ DW_TAG_class_type ]
!127 = metadata !{i32 786489, null, metadata !"hls", metadata !128, i32 69} ; [ DW_TAG_namespace ]
!128 = metadata !{i32 786473, metadata !"/opt/Xilinx/Vivado/2018.1/common/technology/autopilot/hls_stream.h", metadata !"/home/user/galapagos/middleware/hls/galapagos_bridge", null} ; [ DW_TAG_file_type ]
!129 = metadata !{metadata !130, metadata !3780, metadata !3784, metadata !3787, metadata !3792, metadata !3796, metadata !3799, metadata !3802, metadata !3806, metadata !3807, metadata !3808, metadata !3811, metadata !3814, metadata !3815, metadata !3818}
!130 = metadata !{i32 786445, metadata !126, metadata !"V", metadata !128, i32 163, i64 128, i64 64, i64 0, i32 0, metadata !131} ; [ DW_TAG_member ]
!131 = metadata !{i32 786434, metadata !132, metadata !"stream_packet<64>", metadata !133, i32 38, i64 128, i64 64, i32 0, i32 0, null, metadata !134, i32 0, null, metadata !3778} ; [ DW_TAG_class_type ]
!132 = metadata !{i32 786489, null, metadata !"galapagos", metadata !133, i32 36} ; [ DW_TAG_namespace ]
!133 = metadata !{i32 786473, metadata !"/home/user/galapagos/middleware/include/galapagos_packet.h", metadata !"/home/user/galapagos/middleware/hls/galapagos_bridge", null} ; [ DW_TAG_file_type ]
!134 = metadata !{metadata !135, metadata !2810, metadata !3430, metadata !3765, metadata !3766, metadata !3767, metadata !3771, metadata !3772}
!135 = metadata !{i32 786445, metadata !131, metadata !"data", metadata !133, i32 39, i64 64, i64 64, i64 0, i32 0, metadata !136} ; [ DW_TAG_member ]
!136 = metadata !{i32 786434, null, metadata !"ap_uint<64>", metadata !137, i32 183, i64 64, i64 64, i32 0, i32 0, null, metadata !138, i32 0, null, metadata !2809} ; [ DW_TAG_class_type ]
!137 = metadata !{i32 786473, metadata !"/opt/Xilinx/Vivado/2018.1/common/technology/autopilot/ap_int.h", metadata !"/home/user/galapagos/middleware/hls/galapagos_bridge", null} ; [ DW_TAG_file_type ]
!138 = metadata !{metadata !139, metadata !2719, metadata !2723, metadata !2729, metadata !2735, metadata !2742, metadata !2745, metadata !2748, metadata !2751, metadata !2754, metadata !2757, metadata !2760, metadata !2763, metadata !2766, metadata !2769, metadata !2772, metadata !2775, metadata !2778, metadata !2781, metadata !2784, metadata !2787, metadata !2790, metadata !2793, metadata !2797, metadata !2800, metadata !2804, metadata !2807, metadata !2808}
!139 = metadata !{i32 786460, metadata !136, null, metadata !137, i32 0, i64 0, i64 0, i64 0, i32 0, metadata !140} ; [ DW_TAG_inheritance ]
!140 = metadata !{i32 786434, null, metadata !"ap_int_base<64, false, true>", metadata !141, i32 1453, i64 64, i64 64, i32 0, i32 0, null, metadata !142, i32 0, null, metadata !2718} ; [ DW_TAG_class_type ]
!141 = metadata !{i32 786473, metadata !"/opt/Xilinx/Vivado/2018.1/common/technology/autopilot/ap_int_syn.h", metadata !"/home/user/galapagos/middleware/hls/galapagos_bridge", null} ; [ DW_TAG_file_type ]
!142 = metadata !{metadata !143, metadata !165, metadata !169, metadata !177, metadata !183, metadata !186, metadata !190, metadata !194, metadata !198, metadata !202, metadata !205, metadata !209, metadata !213, metadata !217, metadata !222, metadata !227, metadata !232, metadata !236, metadata !240, metadata !246, metadata !249, metadata !253, metadata !256, metadata !259, metadata !260, metadata !264, metadata !267, metadata !270, metadata !273, metadata !276, metadata !279, metadata !282, metadata !285, metadata !288, metadata !291, metadata !294, metadata !297, metadata !307, metadata !310, metadata !313, metadata !316, metadata !319, metadata !322, metadata !325, metadata !328, metadata !331, metadata !334, metadata !337, metadata !340, metadata !343, metadata !344, metadata !348, metadata !351, metadata !352, metadata !353, metadata !354, metadata !355, metadata !356, metadata !359, metadata !360, metadata !363, metadata !364, metadata !365, metadata !366, metadata !367, metadata !368, metadata !371, metadata !372, metadata !373, metadata !376, metadata !377, metadata !380, metadata !381, metadata !635, metadata !2682, metadata !2683, metadata !2686, metadata !2687, metadata !2691, metadata !2692, metadata !2693, metadata !2694, metadata !2697, metadata !2698, metadata !2699, metadata !2700, metadata !2701, metadata !2702, metadata !2703, metadata !2704, metadata !2705, metadata !2706, metadata !2707, metadata !2708, metadata !2711, metadata !2714, metadata !2717}
!143 = metadata !{i32 786460, metadata !140, null, metadata !141, i32 0, i64 0, i64 0, i64 0, i32 0, metadata !144} ; [ DW_TAG_inheritance ]
!144 = metadata !{i32 786434, null, metadata !"ssdm_int<64 + 1024 * 0, false>", metadata !145, i32 68, i64 64, i64 64, i32 0, i32 0, null, metadata !146, i32 0, null, metadata !160} ; [ DW_TAG_class_type ]
!145 = metadata !{i32 786473, metadata !"/opt/Xilinx/Vivado/2018.1/common/technology/autopilot/etc/autopilot_dt.def", metadata !"/home/user/galapagos/middleware/hls/galapagos_bridge", null} ; [ DW_TAG_file_type ]
!146 = metadata !{metadata !147, metadata !149, metadata !155}
!147 = metadata !{i32 786445, metadata !144, metadata !"V", metadata !145, i32 68, i64 64, i64 64, i64 0, i32 0, metadata !148} ; [ DW_TAG_member ]
!148 = metadata !{i32 786468, null, metadata !"uint64", null, i32 0, i64 64, i64 64, i64 0, i32 0, i32 7} ; [ DW_TAG_base_type ]
!149 = metadata !{i32 786478, i32 0, metadata !144, metadata !"ssdm_int", metadata !"ssdm_int", metadata !"", metadata !145, i32 68, metadata !150, i1 false, i1 false, i32 0, i32 0, null, i32 256, i1 false, null, null, i32 0, metadata !153, i32 68} ; [ DW_TAG_subprogram ]
!150 = metadata !{i32 786453, i32 0, metadata !"", i32 0, i32 0, i64 0, i64 0, i64 0, i32 0, null, metadata !151, i32 0, i32 0} ; [ DW_TAG_subroutine_type ]
!151 = metadata !{null, metadata !152}
!152 = metadata !{i32 786447, i32 0, metadata !"", i32 0, i32 0, i64 64, i64 64, i64 0, i32 64, metadata !144} ; [ DW_TAG_pointer_type ]
!153 = metadata !{metadata !154}
!154 = metadata !{i32 786468}                     ; [ DW_TAG_base_type ]
!155 = metadata !{i32 786478, i32 0, metadata !144, metadata !"ssdm_int", metadata !"ssdm_int", metadata !"", metadata !145, i32 68, metadata !156, i1 false, i1 false, i32 0, i32 0, null, i32 320, i1 false, null, null, i32 0, metadata !153, i32 68} ; [ DW_TAG_subprogram ]
!156 = metadata !{i32 786453, i32 0, metadata !"", i32 0, i32 0, i64 0, i64 0, i64 0, i32 0, null, metadata !157, i32 0, i32 0} ; [ DW_TAG_subroutine_type ]
!157 = metadata !{null, metadata !152, metadata !158}
!158 = metadata !{i32 786448, null, null, null, i32 0, i64 0, i64 0, i64 0, i32 0, metadata !159} ; [ DW_TAG_reference_type ]
!159 = metadata !{i32 786470, null, metadata !"", null, i32 0, i64 0, i64 0, i64 0, i32 0, metadata !144} ; [ DW_TAG_const_type ]
!160 = metadata !{metadata !161, metadata !163}
!161 = metadata !{i32 786480, null, metadata !"_AP_N", metadata !162, i64 64, null, i32 0, i32 0} ; [ DW_TAG_template_value_parameter ]
!162 = metadata !{i32 786468, null, metadata !"int", null, i32 0, i64 32, i64 32, i64 0, i32 0, i32 5} ; [ DW_TAG_base_type ]
!163 = metadata !{i32 786480, null, metadata !"_AP_S", metadata !164, i64 0, null, i32 0, i32 0} ; [ DW_TAG_template_value_parameter ]
!164 = metadata !{i32 786468, null, metadata !"bool", null, i32 0, i64 8, i64 8, i64 0, i32 0, i32 2} ; [ DW_TAG_base_type ]
!165 = metadata !{i32 786478, i32 0, metadata !140, metadata !"ap_int_base", metadata !"ap_int_base", metadata !"", metadata !141, i32 1494, metadata !166, i1 false, i1 false, i32 0, i32 0, null, i32 256, i1 false, null, null, i32 0, metadata !153, i32 1494} ; [ DW_TAG_subprogram ]
!166 = metadata !{i32 786453, i32 0, metadata !"", i32 0, i32 0, i64 0, i64 0, i64 0, i32 0, null, metadata !167, i32 0, i32 0} ; [ DW_TAG_subroutine_type ]
!167 = metadata !{null, metadata !168}
!168 = metadata !{i32 786447, i32 0, metadata !"", i32 0, i32 0, i64 64, i64 64, i64 0, i32 64, metadata !140} ; [ DW_TAG_pointer_type ]
!169 = metadata !{i32 786478, i32 0, metadata !140, metadata !"ap_int_base<64, false>", metadata !"ap_int_base<64, false>", metadata !"", metadata !141, i32 1506, metadata !170, i1 false, i1 false, i32 0, i32 0, null, i32 256, i1 false, null, metadata !174, i32 0, metadata !153, i32 1506} ; [ DW_TAG_subprogram ]
!170 = metadata !{i32 786453, i32 0, metadata !"", i32 0, i32 0, i64 0, i64 0, i64 0, i32 0, null, metadata !171, i32 0, i32 0} ; [ DW_TAG_subroutine_type ]
!171 = metadata !{null, metadata !168, metadata !172}
!172 = metadata !{i32 786448, null, null, null, i32 0, i64 0, i64 0, i64 0, i32 0, metadata !173} ; [ DW_TAG_reference_type ]
!173 = metadata !{i32 786470, null, metadata !"", null, i32 0, i64 0, i64 0, i64 0, i32 0, metadata !140} ; [ DW_TAG_const_type ]
!174 = metadata !{metadata !175, metadata !176}
!175 = metadata !{i32 786480, null, metadata !"_AP_W2", metadata !162, i64 64, null, i32 0, i32 0} ; [ DW_TAG_template_value_parameter ]
!176 = metadata !{i32 786480, null, metadata !"_AP_S2", metadata !164, i64 0, null, i32 0, i32 0} ; [ DW_TAG_template_value_parameter ]
!177 = metadata !{i32 786478, i32 0, metadata !140, metadata !"ap_int_base<64, false>", metadata !"ap_int_base<64, false>", metadata !"", metadata !141, i32 1509, metadata !178, i1 false, i1 false, i32 0, i32 0, null, i32 256, i1 false, null, metadata !174, i32 0, metadata !153, i32 1509} ; [ DW_TAG_subprogram ]
!178 = metadata !{i32 786453, i32 0, metadata !"", i32 0, i32 0, i64 0, i64 0, i64 0, i32 0, null, metadata !179, i32 0, i32 0} ; [ DW_TAG_subroutine_type ]
!179 = metadata !{null, metadata !168, metadata !180}
!180 = metadata !{i32 786448, null, null, null, i32 0, i64 0, i64 0, i64 0, i32 0, metadata !181} ; [ DW_TAG_reference_type ]
!181 = metadata !{i32 786470, null, metadata !"", null, i32 0, i64 0, i64 0, i64 0, i32 0, metadata !182} ; [ DW_TAG_const_type ]
!182 = metadata !{i32 786485, null, metadata !"", null, i32 0, i64 0, i64 0, i64 0, i32 0, metadata !140} ; [ DW_TAG_volatile_type ]
!183 = metadata !{i32 786478, i32 0, metadata !140, metadata !"ap_int_base", metadata !"ap_int_base", metadata !"", metadata !141, i32 1516, metadata !184, i1 false, i1 false, i32 0, i32 0, null, i32 384, i1 false, null, null, i32 0, metadata !153, i32 1516} ; [ DW_TAG_subprogram ]
!184 = metadata !{i32 786453, i32 0, metadata !"", i32 0, i32 0, i64 0, i64 0, i64 0, i32 0, null, metadata !185, i32 0, i32 0} ; [ DW_TAG_subroutine_type ]
!185 = metadata !{null, metadata !168, metadata !164}
!186 = metadata !{i32 786478, i32 0, metadata !140, metadata !"ap_int_base", metadata !"ap_int_base", metadata !"", metadata !141, i32 1517, metadata !187, i1 false, i1 false, i32 0, i32 0, null, i32 384, i1 false, null, null, i32 0, metadata !153, i32 1517} ; [ DW_TAG_subprogram ]
!187 = metadata !{i32 786453, i32 0, metadata !"", i32 0, i32 0, i64 0, i64 0, i64 0, i32 0, null, metadata !188, i32 0, i32 0} ; [ DW_TAG_subroutine_type ]
!188 = metadata !{null, metadata !168, metadata !189}
!189 = metadata !{i32 786468, null, metadata !"signed char", null, i32 0, i64 8, i64 8, i64 0, i32 0, i32 6} ; [ DW_TAG_base_type ]
!190 = metadata !{i32 786478, i32 0, metadata !140, metadata !"ap_int_base", metadata !"ap_int_base", metadata !"", metadata !141, i32 1518, metadata !191, i1 false, i1 false, i32 0, i32 0, null, i32 384, i1 false, null, null, i32 0, metadata !153, i32 1518} ; [ DW_TAG_subprogram ]
!191 = metadata !{i32 786453, i32 0, metadata !"", i32 0, i32 0, i64 0, i64 0, i64 0, i32 0, null, metadata !192, i32 0, i32 0} ; [ DW_TAG_subroutine_type ]
!192 = metadata !{null, metadata !168, metadata !193}
!193 = metadata !{i32 786468, null, metadata !"unsigned char", null, i32 0, i64 8, i64 8, i64 0, i32 0, i32 8} ; [ DW_TAG_base_type ]
!194 = metadata !{i32 786478, i32 0, metadata !140, metadata !"ap_int_base", metadata !"ap_int_base", metadata !"", metadata !141, i32 1519, metadata !195, i1 false, i1 false, i32 0, i32 0, null, i32 384, i1 false, null, null, i32 0, metadata !153, i32 1519} ; [ DW_TAG_subprogram ]
!195 = metadata !{i32 786453, i32 0, metadata !"", i32 0, i32 0, i64 0, i64 0, i64 0, i32 0, null, metadata !196, i32 0, i32 0} ; [ DW_TAG_subroutine_type ]
!196 = metadata !{null, metadata !168, metadata !197}
!197 = metadata !{i32 786468, null, metadata !"short", null, i32 0, i64 16, i64 16, i64 0, i32 0, i32 5} ; [ DW_TAG_base_type ]
!198 = metadata !{i32 786478, i32 0, metadata !140, metadata !"ap_int_base", metadata !"ap_int_base", metadata !"", metadata !141, i32 1520, metadata !199, i1 false, i1 false, i32 0, i32 0, null, i32 384, i1 false, null, null, i32 0, metadata !153, i32 1520} ; [ DW_TAG_subprogram ]
!199 = metadata !{i32 786453, i32 0, metadata !"", i32 0, i32 0, i64 0, i64 0, i64 0, i32 0, null, metadata !200, i32 0, i32 0} ; [ DW_TAG_subroutine_type ]
!200 = metadata !{null, metadata !168, metadata !201}
!201 = metadata !{i32 786468, null, metadata !"unsigned short", null, i32 0, i64 16, i64 16, i64 0, i32 0, i32 7} ; [ DW_TAG_base_type ]
!202 = metadata !{i32 786478, i32 0, metadata !140, metadata !"ap_int_base", metadata !"ap_int_base", metadata !"", metadata !141, i32 1521, metadata !203, i1 false, i1 false, i32 0, i32 0, null, i32 384, i1 false, null, null, i32 0, metadata !153, i32 1521} ; [ DW_TAG_subprogram ]
!203 = metadata !{i32 786453, i32 0, metadata !"", i32 0, i32 0, i64 0, i64 0, i64 0, i32 0, null, metadata !204, i32 0, i32 0} ; [ DW_TAG_subroutine_type ]
!204 = metadata !{null, metadata !168, metadata !162}
!205 = metadata !{i32 786478, i32 0, metadata !140, metadata !"ap_int_base", metadata !"ap_int_base", metadata !"", metadata !141, i32 1522, metadata !206, i1 false, i1 false, i32 0, i32 0, null, i32 384, i1 false, null, null, i32 0, metadata !153, i32 1522} ; [ DW_TAG_subprogram ]
!206 = metadata !{i32 786453, i32 0, metadata !"", i32 0, i32 0, i64 0, i64 0, i64 0, i32 0, null, metadata !207, i32 0, i32 0} ; [ DW_TAG_subroutine_type ]
!207 = metadata !{null, metadata !168, metadata !208}
!208 = metadata !{i32 786468, null, metadata !"unsigned int", null, i32 0, i64 32, i64 32, i64 0, i32 0, i32 7} ; [ DW_TAG_base_type ]
!209 = metadata !{i32 786478, i32 0, metadata !140, metadata !"ap_int_base", metadata !"ap_int_base", metadata !"", metadata !141, i32 1523, metadata !210, i1 false, i1 false, i32 0, i32 0, null, i32 384, i1 false, null, null, i32 0, metadata !153, i32 1523} ; [ DW_TAG_subprogram ]
!210 = metadata !{i32 786453, i32 0, metadata !"", i32 0, i32 0, i64 0, i64 0, i64 0, i32 0, null, metadata !211, i32 0, i32 0} ; [ DW_TAG_subroutine_type ]
!211 = metadata !{null, metadata !168, metadata !212}
!212 = metadata !{i32 786468, null, metadata !"long int", null, i32 0, i64 64, i64 64, i64 0, i32 0, i32 5} ; [ DW_TAG_base_type ]
!213 = metadata !{i32 786478, i32 0, metadata !140, metadata !"ap_int_base", metadata !"ap_int_base", metadata !"", metadata !141, i32 1524, metadata !214, i1 false, i1 false, i32 0, i32 0, null, i32 384, i1 false, null, null, i32 0, metadata !153, i32 1524} ; [ DW_TAG_subprogram ]
!214 = metadata !{i32 786453, i32 0, metadata !"", i32 0, i32 0, i64 0, i64 0, i64 0, i32 0, null, metadata !215, i32 0, i32 0} ; [ DW_TAG_subroutine_type ]
!215 = metadata !{null, metadata !168, metadata !216}
!216 = metadata !{i32 786468, null, metadata !"long unsigned int", null, i32 0, i64 64, i64 64, i64 0, i32 0, i32 7} ; [ DW_TAG_base_type ]
!217 = metadata !{i32 786478, i32 0, metadata !140, metadata !"ap_int_base", metadata !"ap_int_base", metadata !"", metadata !141, i32 1525, metadata !218, i1 false, i1 false, i32 0, i32 0, null, i32 384, i1 false, null, null, i32 0, metadata !153, i32 1525} ; [ DW_TAG_subprogram ]
!218 = metadata !{i32 786453, i32 0, metadata !"", i32 0, i32 0, i64 0, i64 0, i64 0, i32 0, null, metadata !219, i32 0, i32 0} ; [ DW_TAG_subroutine_type ]
!219 = metadata !{null, metadata !168, metadata !220}
!220 = metadata !{i32 786454, null, metadata !"ap_slong", metadata !141, i32 112, i64 0, i64 0, i64 0, i32 0, metadata !221} ; [ DW_TAG_typedef ]
!221 = metadata !{i32 786468, null, metadata !"long long int", null, i32 0, i64 64, i64 64, i64 0, i32 0, i32 5} ; [ DW_TAG_base_type ]
!222 = metadata !{i32 786478, i32 0, metadata !140, metadata !"ap_int_base", metadata !"ap_int_base", metadata !"", metadata !141, i32 1526, metadata !223, i1 false, i1 false, i32 0, i32 0, null, i32 384, i1 false, null, null, i32 0, metadata !153, i32 1526} ; [ DW_TAG_subprogram ]
!223 = metadata !{i32 786453, i32 0, metadata !"", i32 0, i32 0, i64 0, i64 0, i64 0, i32 0, null, metadata !224, i32 0, i32 0} ; [ DW_TAG_subroutine_type ]
!224 = metadata !{null, metadata !168, metadata !225}
!225 = metadata !{i32 786454, null, metadata !"ap_ulong", metadata !141, i32 111, i64 0, i64 0, i64 0, i32 0, metadata !226} ; [ DW_TAG_typedef ]
!226 = metadata !{i32 786468, null, metadata !"long long unsigned int", null, i32 0, i64 64, i64 64, i64 0, i32 0, i32 7} ; [ DW_TAG_base_type ]
!227 = metadata !{i32 786478, i32 0, metadata !140, metadata !"ap_int_base", metadata !"ap_int_base", metadata !"", metadata !141, i32 1527, metadata !228, i1 false, i1 false, i32 0, i32 0, null, i32 384, i1 false, null, null, i32 0, metadata !153, i32 1527} ; [ DW_TAG_subprogram ]
!228 = metadata !{i32 786453, i32 0, metadata !"", i32 0, i32 0, i64 0, i64 0, i64 0, i32 0, null, metadata !229, i32 0, i32 0} ; [ DW_TAG_subroutine_type ]
!229 = metadata !{null, metadata !168, metadata !230}
!230 = metadata !{i32 786454, null, metadata !"half", metadata !141, i32 54, i64 0, i64 0, i64 0, i32 0, metadata !231} ; [ DW_TAG_typedef ]
!231 = metadata !{i32 786468, null, metadata !"half", null, i32 0, i64 16, i64 16, i64 0, i32 0, i32 4} ; [ DW_TAG_base_type ]
!232 = metadata !{i32 786478, i32 0, metadata !140, metadata !"ap_int_base", metadata !"ap_int_base", metadata !"", metadata !141, i32 1528, metadata !233, i1 false, i1 false, i32 0, i32 0, null, i32 384, i1 false, null, null, i32 0, metadata !153, i32 1528} ; [ DW_TAG_subprogram ]
!233 = metadata !{i32 786453, i32 0, metadata !"", i32 0, i32 0, i64 0, i64 0, i64 0, i32 0, null, metadata !234, i32 0, i32 0} ; [ DW_TAG_subroutine_type ]
!234 = metadata !{null, metadata !168, metadata !235}
!235 = metadata !{i32 786468, null, metadata !"float", null, i32 0, i64 32, i64 32, i64 0, i32 0, i32 4} ; [ DW_TAG_base_type ]
!236 = metadata !{i32 786478, i32 0, metadata !140, metadata !"ap_int_base", metadata !"ap_int_base", metadata !"", metadata !141, i32 1529, metadata !237, i1 false, i1 false, i32 0, i32 0, null, i32 384, i1 false, null, null, i32 0, metadata !153, i32 1529} ; [ DW_TAG_subprogram ]
!237 = metadata !{i32 786453, i32 0, metadata !"", i32 0, i32 0, i64 0, i64 0, i64 0, i32 0, null, metadata !238, i32 0, i32 0} ; [ DW_TAG_subroutine_type ]
!238 = metadata !{null, metadata !168, metadata !239}
!239 = metadata !{i32 786468, null, metadata !"double", null, i32 0, i64 64, i64 64, i64 0, i32 0, i32 4} ; [ DW_TAG_base_type ]
!240 = metadata !{i32 786478, i32 0, metadata !140, metadata !"ap_int_base", metadata !"ap_int_base", metadata !"", metadata !141, i32 1556, metadata !241, i1 false, i1 false, i32 0, i32 0, null, i32 256, i1 false, null, null, i32 0, metadata !153, i32 1556} ; [ DW_TAG_subprogram ]
!241 = metadata !{i32 786453, i32 0, metadata !"", i32 0, i32 0, i64 0, i64 0, i64 0, i32 0, null, metadata !242, i32 0, i32 0} ; [ DW_TAG_subroutine_type ]
!242 = metadata !{null, metadata !168, metadata !243}
!243 = metadata !{i32 786447, null, metadata !"", null, i32 0, i64 64, i64 64, i64 0, i32 0, metadata !244} ; [ DW_TAG_pointer_type ]
!244 = metadata !{i32 786470, null, metadata !"", null, i32 0, i64 0, i64 0, i64 0, i32 0, metadata !245} ; [ DW_TAG_const_type ]
!245 = metadata !{i32 786468, null, metadata !"char", null, i32 0, i64 8, i64 8, i64 0, i32 0, i32 6} ; [ DW_TAG_base_type ]
!246 = metadata !{i32 786478, i32 0, metadata !140, metadata !"ap_int_base", metadata !"ap_int_base", metadata !"", metadata !141, i32 1563, metadata !247, i1 false, i1 false, i32 0, i32 0, null, i32 256, i1 false, null, null, i32 0, metadata !153, i32 1563} ; [ DW_TAG_subprogram ]
!247 = metadata !{i32 786453, i32 0, metadata !"", i32 0, i32 0, i64 0, i64 0, i64 0, i32 0, null, metadata !248, i32 0, i32 0} ; [ DW_TAG_subroutine_type ]
!248 = metadata !{null, metadata !168, metadata !243, metadata !189}
!249 = metadata !{i32 786478, i32 0, metadata !140, metadata !"read", metadata !"read", metadata !"_ZNV11ap_int_baseILi64ELb0ELb1EE4readEv", metadata !141, i32 1584, metadata !250, i1 false, i1 false, i32 0, i32 0, null, i32 256, i1 false, null, null, i32 0, metadata !153, i32 1584} ; [ DW_TAG_subprogram ]
!250 = metadata !{i32 786453, i32 0, metadata !"", i32 0, i32 0, i64 0, i64 0, i64 0, i32 0, null, metadata !251, i32 0, i32 0} ; [ DW_TAG_subroutine_type ]
!251 = metadata !{metadata !140, metadata !252}
!252 = metadata !{i32 786447, i32 0, metadata !"", i32 0, i32 0, i64 64, i64 64, i64 0, i32 64, metadata !182} ; [ DW_TAG_pointer_type ]
!253 = metadata !{i32 786478, i32 0, metadata !140, metadata !"write", metadata !"write", metadata !"_ZNV11ap_int_baseILi64ELb0ELb1EE5writeERKS0_", metadata !141, i32 1590, metadata !254, i1 false, i1 false, i32 0, i32 0, null, i32 256, i1 false, null, null, i32 0, metadata !153, i32 1590} ; [ DW_TAG_subprogram ]
!254 = metadata !{i32 786453, i32 0, metadata !"", i32 0, i32 0, i64 0, i64 0, i64 0, i32 0, null, metadata !255, i32 0, i32 0} ; [ DW_TAG_subroutine_type ]
!255 = metadata !{null, metadata !252, metadata !172}
!256 = metadata !{i32 786478, i32 0, metadata !140, metadata !"operator=", metadata !"operator=", metadata !"_ZNV11ap_int_baseILi64ELb0ELb1EEaSERVKS0_", metadata !141, i32 1602, metadata !257, i1 false, i1 false, i32 0, i32 0, null, i32 256, i1 false, null, null, i32 0, metadata !153, i32 1602} ; [ DW_TAG_subprogram ]
!257 = metadata !{i32 786453, i32 0, metadata !"", i32 0, i32 0, i64 0, i64 0, i64 0, i32 0, null, metadata !258, i32 0, i32 0} ; [ DW_TAG_subroutine_type ]
!258 = metadata !{null, metadata !252, metadata !180}
!259 = metadata !{i32 786478, i32 0, metadata !140, metadata !"operator=", metadata !"operator=", metadata !"_ZNV11ap_int_baseILi64ELb0ELb1EEaSERKS0_", metadata !141, i32 1611, metadata !254, i1 false, i1 false, i32 0, i32 0, null, i32 256, i1 false, null, null, i32 0, metadata !153, i32 1611} ; [ DW_TAG_subprogram ]
!260 = metadata !{i32 786478, i32 0, metadata !140, metadata !"operator=", metadata !"operator=", metadata !"_ZN11ap_int_baseILi64ELb0ELb1EEaSERVKS0_", metadata !141, i32 1634, metadata !261, i1 false, i1 false, i32 0, i32 0, null, i32 256, i1 false, null, null, i32 0, metadata !153, i32 1634} ; [ DW_TAG_subprogram ]
!261 = metadata !{i32 786453, i32 0, metadata !"", i32 0, i32 0, i64 0, i64 0, i64 0, i32 0, null, metadata !262, i32 0, i32 0} ; [ DW_TAG_subroutine_type ]
!262 = metadata !{metadata !263, metadata !168, metadata !180}
!263 = metadata !{i32 786448, null, null, null, i32 0, i64 0, i64 0, i64 0, i32 0, metadata !140} ; [ DW_TAG_reference_type ]
!264 = metadata !{i32 786478, i32 0, metadata !140, metadata !"operator=", metadata !"operator=", metadata !"_ZN11ap_int_baseILi64ELb0ELb1EEaSERKS0_", metadata !141, i32 1639, metadata !265, i1 false, i1 false, i32 0, i32 0, null, i32 256, i1 false, null, null, i32 0, metadata !153, i32 1639} ; [ DW_TAG_subprogram ]
!265 = metadata !{i32 786453, i32 0, metadata !"", i32 0, i32 0, i64 0, i64 0, i64 0, i32 0, null, metadata !266, i32 0, i32 0} ; [ DW_TAG_subroutine_type ]
!266 = metadata !{metadata !263, metadata !168, metadata !172}
!267 = metadata !{i32 786478, i32 0, metadata !140, metadata !"operator=", metadata !"operator=", metadata !"_ZN11ap_int_baseILi64ELb0ELb1EEaSEPKc", metadata !141, i32 1643, metadata !268, i1 false, i1 false, i32 0, i32 0, null, i32 256, i1 false, null, null, i32 0, metadata !153, i32 1643} ; [ DW_TAG_subprogram ]
!268 = metadata !{i32 786453, i32 0, metadata !"", i32 0, i32 0, i64 0, i64 0, i64 0, i32 0, null, metadata !269, i32 0, i32 0} ; [ DW_TAG_subroutine_type ]
!269 = metadata !{metadata !263, metadata !168, metadata !243}
!270 = metadata !{i32 786478, i32 0, metadata !140, metadata !"set", metadata !"set", metadata !"_ZN11ap_int_baseILi64ELb0ELb1EE3setEPKca", metadata !141, i32 1651, metadata !271, i1 false, i1 false, i32 0, i32 0, null, i32 256, i1 false, null, null, i32 0, metadata !153, i32 1651} ; [ DW_TAG_subprogram ]
!271 = metadata !{i32 786453, i32 0, metadata !"", i32 0, i32 0, i64 0, i64 0, i64 0, i32 0, null, metadata !272, i32 0, i32 0} ; [ DW_TAG_subroutine_type ]
!272 = metadata !{metadata !263, metadata !168, metadata !243, metadata !189}
!273 = metadata !{i32 786478, i32 0, metadata !140, metadata !"operator=", metadata !"operator=", metadata !"_ZN11ap_int_baseILi64ELb0ELb1EEaSEa", metadata !141, i32 1665, metadata !274, i1 false, i1 false, i32 0, i32 0, null, i32 256, i1 false, null, null, i32 0, metadata !153, i32 1665} ; [ DW_TAG_subprogram ]
!274 = metadata !{i32 786453, i32 0, metadata !"", i32 0, i32 0, i64 0, i64 0, i64 0, i32 0, null, metadata !275, i32 0, i32 0} ; [ DW_TAG_subroutine_type ]
!275 = metadata !{metadata !263, metadata !168, metadata !189}
!276 = metadata !{i32 786478, i32 0, metadata !140, metadata !"operator=", metadata !"operator=", metadata !"_ZN11ap_int_baseILi64ELb0ELb1EEaSEh", metadata !141, i32 1666, metadata !277, i1 false, i1 false, i32 0, i32 0, null, i32 256, i1 false, null, null, i32 0, metadata !153, i32 1666} ; [ DW_TAG_subprogram ]
!277 = metadata !{i32 786453, i32 0, metadata !"", i32 0, i32 0, i64 0, i64 0, i64 0, i32 0, null, metadata !278, i32 0, i32 0} ; [ DW_TAG_subroutine_type ]
!278 = metadata !{metadata !263, metadata !168, metadata !193}
!279 = metadata !{i32 786478, i32 0, metadata !140, metadata !"operator=", metadata !"operator=", metadata !"_ZN11ap_int_baseILi64ELb0ELb1EEaSEs", metadata !141, i32 1667, metadata !280, i1 false, i1 false, i32 0, i32 0, null, i32 256, i1 false, null, null, i32 0, metadata !153, i32 1667} ; [ DW_TAG_subprogram ]
!280 = metadata !{i32 786453, i32 0, metadata !"", i32 0, i32 0, i64 0, i64 0, i64 0, i32 0, null, metadata !281, i32 0, i32 0} ; [ DW_TAG_subroutine_type ]
!281 = metadata !{metadata !263, metadata !168, metadata !197}
!282 = metadata !{i32 786478, i32 0, metadata !140, metadata !"operator=", metadata !"operator=", metadata !"_ZN11ap_int_baseILi64ELb0ELb1EEaSEt", metadata !141, i32 1668, metadata !283, i1 false, i1 false, i32 0, i32 0, null, i32 256, i1 false, null, null, i32 0, metadata !153, i32 1668} ; [ DW_TAG_subprogram ]
!283 = metadata !{i32 786453, i32 0, metadata !"", i32 0, i32 0, i64 0, i64 0, i64 0, i32 0, null, metadata !284, i32 0, i32 0} ; [ DW_TAG_subroutine_type ]
!284 = metadata !{metadata !263, metadata !168, metadata !201}
!285 = metadata !{i32 786478, i32 0, metadata !140, metadata !"operator=", metadata !"operator=", metadata !"_ZN11ap_int_baseILi64ELb0ELb1EEaSEi", metadata !141, i32 1669, metadata !286, i1 false, i1 false, i32 0, i32 0, null, i32 256, i1 false, null, null, i32 0, metadata !153, i32 1669} ; [ DW_TAG_subprogram ]
!286 = metadata !{i32 786453, i32 0, metadata !"", i32 0, i32 0, i64 0, i64 0, i64 0, i32 0, null, metadata !287, i32 0, i32 0} ; [ DW_TAG_subroutine_type ]
!287 = metadata !{metadata !263, metadata !168, metadata !162}
!288 = metadata !{i32 786478, i32 0, metadata !140, metadata !"operator=", metadata !"operator=", metadata !"_ZN11ap_int_baseILi64ELb0ELb1EEaSEj", metadata !141, i32 1670, metadata !289, i1 false, i1 false, i32 0, i32 0, null, i32 256, i1 false, null, null, i32 0, metadata !153, i32 1670} ; [ DW_TAG_subprogram ]
!289 = metadata !{i32 786453, i32 0, metadata !"", i32 0, i32 0, i64 0, i64 0, i64 0, i32 0, null, metadata !290, i32 0, i32 0} ; [ DW_TAG_subroutine_type ]
!290 = metadata !{metadata !263, metadata !168, metadata !208}
!291 = metadata !{i32 786478, i32 0, metadata !140, metadata !"operator=", metadata !"operator=", metadata !"_ZN11ap_int_baseILi64ELb0ELb1EEaSEx", metadata !141, i32 1671, metadata !292, i1 false, i1 false, i32 0, i32 0, null, i32 256, i1 false, null, null, i32 0, metadata !153, i32 1671} ; [ DW_TAG_subprogram ]
!292 = metadata !{i32 786453, i32 0, metadata !"", i32 0, i32 0, i64 0, i64 0, i64 0, i32 0, null, metadata !293, i32 0, i32 0} ; [ DW_TAG_subroutine_type ]
!293 = metadata !{metadata !263, metadata !168, metadata !220}
!294 = metadata !{i32 786478, i32 0, metadata !140, metadata !"operator=", metadata !"operator=", metadata !"_ZN11ap_int_baseILi64ELb0ELb1EEaSEy", metadata !141, i32 1672, metadata !295, i1 false, i1 false, i32 0, i32 0, null, i32 256, i1 false, null, null, i32 0, metadata !153, i32 1672} ; [ DW_TAG_subprogram ]
!295 = metadata !{i32 786453, i32 0, metadata !"", i32 0, i32 0, i64 0, i64 0, i64 0, i32 0, null, metadata !296, i32 0, i32 0} ; [ DW_TAG_subroutine_type ]
!296 = metadata !{metadata !263, metadata !168, metadata !225}
!297 = metadata !{i32 786478, i32 0, metadata !140, metadata !"operator unsigned long long", metadata !"operator unsigned long long", metadata !"_ZNK11ap_int_baseILi64ELb0ELb1EEcvyEv", metadata !141, i32 1710, metadata !298, i1 false, i1 false, i32 0, i32 0, null, i32 256, i1 false, null, null, i32 0, metadata !153, i32 1710} ; [ DW_TAG_subprogram ]
!298 = metadata !{i32 786453, i32 0, metadata !"", i32 0, i32 0, i64 0, i64 0, i64 0, i32 0, null, metadata !299, i32 0, i32 0} ; [ DW_TAG_subroutine_type ]
!299 = metadata !{metadata !300, metadata !306}
!300 = metadata !{i32 786454, metadata !140, metadata !"RetType", metadata !141, i32 1458, i64 0, i64 0, i64 0, i32 0, metadata !301} ; [ DW_TAG_typedef ]
!301 = metadata !{i32 786454, metadata !302, metadata !"Type", metadata !141, i32 1419, i64 0, i64 0, i64 0, i32 0, metadata !225} ; [ DW_TAG_typedef ]
!302 = metadata !{i32 786434, null, metadata !"retval<8, false>", metadata !141, i32 1418, i64 8, i64 8, i32 0, i32 0, null, metadata !303, i32 0, null, metadata !304} ; [ DW_TAG_class_type ]
!303 = metadata !{i32 0}
!304 = metadata !{metadata !305, metadata !163}
!305 = metadata !{i32 786480, null, metadata !"_AP_N", metadata !162, i64 8, null, i32 0, i32 0} ; [ DW_TAG_template_value_parameter ]
!306 = metadata !{i32 786447, i32 0, metadata !"", i32 0, i32 0, i64 64, i64 64, i64 0, i32 64, metadata !173} ; [ DW_TAG_pointer_type ]
!307 = metadata !{i32 786478, i32 0, metadata !140, metadata !"to_bool", metadata !"to_bool", metadata !"_ZNK11ap_int_baseILi64ELb0ELb1EE7to_boolEv", metadata !141, i32 1716, metadata !308, i1 false, i1 false, i32 0, i32 0, null, i32 256, i1 false, null, null, i32 0, metadata !153, i32 1716} ; [ DW_TAG_subprogram ]
!308 = metadata !{i32 786453, i32 0, metadata !"", i32 0, i32 0, i64 0, i64 0, i64 0, i32 0, null, metadata !309, i32 0, i32 0} ; [ DW_TAG_subroutine_type ]
!309 = metadata !{metadata !164, metadata !306}
!310 = metadata !{i32 786478, i32 0, metadata !140, metadata !"to_uchar", metadata !"to_uchar", metadata !"_ZNK11ap_int_baseILi64ELb0ELb1EE8to_ucharEv", metadata !141, i32 1717, metadata !311, i1 false, i1 false, i32 0, i32 0, null, i32 256, i1 false, null, null, i32 0, metadata !153, i32 1717} ; [ DW_TAG_subprogram ]
!311 = metadata !{i32 786453, i32 0, metadata !"", i32 0, i32 0, i64 0, i64 0, i64 0, i32 0, null, metadata !312, i32 0, i32 0} ; [ DW_TAG_subroutine_type ]
!312 = metadata !{metadata !193, metadata !306}
!313 = metadata !{i32 786478, i32 0, metadata !140, metadata !"to_char", metadata !"to_char", metadata !"_ZNK11ap_int_baseILi64ELb0ELb1EE7to_charEv", metadata !141, i32 1718, metadata !314, i1 false, i1 false, i32 0, i32 0, null, i32 256, i1 false, null, null, i32 0, metadata !153, i32 1718} ; [ DW_TAG_subprogram ]
!314 = metadata !{i32 786453, i32 0, metadata !"", i32 0, i32 0, i64 0, i64 0, i64 0, i32 0, null, metadata !315, i32 0, i32 0} ; [ DW_TAG_subroutine_type ]
!315 = metadata !{metadata !189, metadata !306}
!316 = metadata !{i32 786478, i32 0, metadata !140, metadata !"to_ushort", metadata !"to_ushort", metadata !"_ZNK11ap_int_baseILi64ELb0ELb1EE9to_ushortEv", metadata !141, i32 1719, metadata !317, i1 false, i1 false, i32 0, i32 0, null, i32 256, i1 false, null, null, i32 0, metadata !153, i32 1719} ; [ DW_TAG_subprogram ]
!317 = metadata !{i32 786453, i32 0, metadata !"", i32 0, i32 0, i64 0, i64 0, i64 0, i32 0, null, metadata !318, i32 0, i32 0} ; [ DW_TAG_subroutine_type ]
!318 = metadata !{metadata !201, metadata !306}
!319 = metadata !{i32 786478, i32 0, metadata !140, metadata !"to_short", metadata !"to_short", metadata !"_ZNK11ap_int_baseILi64ELb0ELb1EE8to_shortEv", metadata !141, i32 1720, metadata !320, i1 false, i1 false, i32 0, i32 0, null, i32 256, i1 false, null, null, i32 0, metadata !153, i32 1720} ; [ DW_TAG_subprogram ]
!320 = metadata !{i32 786453, i32 0, metadata !"", i32 0, i32 0, i64 0, i64 0, i64 0, i32 0, null, metadata !321, i32 0, i32 0} ; [ DW_TAG_subroutine_type ]
!321 = metadata !{metadata !197, metadata !306}
!322 = metadata !{i32 786478, i32 0, metadata !140, metadata !"to_int", metadata !"to_int", metadata !"_ZNK11ap_int_baseILi64ELb0ELb1EE6to_intEv", metadata !141, i32 1721, metadata !323, i1 false, i1 false, i32 0, i32 0, null, i32 256, i1 false, null, null, i32 0, metadata !153, i32 1721} ; [ DW_TAG_subprogram ]
!323 = metadata !{i32 786453, i32 0, metadata !"", i32 0, i32 0, i64 0, i64 0, i64 0, i32 0, null, metadata !324, i32 0, i32 0} ; [ DW_TAG_subroutine_type ]
!324 = metadata !{metadata !162, metadata !306}
!325 = metadata !{i32 786478, i32 0, metadata !140, metadata !"to_uint", metadata !"to_uint", metadata !"_ZNK11ap_int_baseILi64ELb0ELb1EE7to_uintEv", metadata !141, i32 1722, metadata !326, i1 false, i1 false, i32 0, i32 0, null, i32 256, i1 false, null, null, i32 0, metadata !153, i32 1722} ; [ DW_TAG_subprogram ]
!326 = metadata !{i32 786453, i32 0, metadata !"", i32 0, i32 0, i64 0, i64 0, i64 0, i32 0, null, metadata !327, i32 0, i32 0} ; [ DW_TAG_subroutine_type ]
!327 = metadata !{metadata !208, metadata !306}
!328 = metadata !{i32 786478, i32 0, metadata !140, metadata !"to_long", metadata !"to_long", metadata !"_ZNK11ap_int_baseILi64ELb0ELb1EE7to_longEv", metadata !141, i32 1723, metadata !329, i1 false, i1 false, i32 0, i32 0, null, i32 256, i1 false, null, null, i32 0, metadata !153, i32 1723} ; [ DW_TAG_subprogram ]
!329 = metadata !{i32 786453, i32 0, metadata !"", i32 0, i32 0, i64 0, i64 0, i64 0, i32 0, null, metadata !330, i32 0, i32 0} ; [ DW_TAG_subroutine_type ]
!330 = metadata !{metadata !212, metadata !306}
!331 = metadata !{i32 786478, i32 0, metadata !140, metadata !"to_ulong", metadata !"to_ulong", metadata !"_ZNK11ap_int_baseILi64ELb0ELb1EE8to_ulongEv", metadata !141, i32 1724, metadata !332, i1 false, i1 false, i32 0, i32 0, null, i32 256, i1 false, null, null, i32 0, metadata !153, i32 1724} ; [ DW_TAG_subprogram ]
!332 = metadata !{i32 786453, i32 0, metadata !"", i32 0, i32 0, i64 0, i64 0, i64 0, i32 0, null, metadata !333, i32 0, i32 0} ; [ DW_TAG_subroutine_type ]
!333 = metadata !{metadata !216, metadata !306}
!334 = metadata !{i32 786478, i32 0, metadata !140, metadata !"to_int64", metadata !"to_int64", metadata !"_ZNK11ap_int_baseILi64ELb0ELb1EE8to_int64Ev", metadata !141, i32 1725, metadata !335, i1 false, i1 false, i32 0, i32 0, null, i32 256, i1 false, null, null, i32 0, metadata !153, i32 1725} ; [ DW_TAG_subprogram ]
!335 = metadata !{i32 786453, i32 0, metadata !"", i32 0, i32 0, i64 0, i64 0, i64 0, i32 0, null, metadata !336, i32 0, i32 0} ; [ DW_TAG_subroutine_type ]
!336 = metadata !{metadata !220, metadata !306}
!337 = metadata !{i32 786478, i32 0, metadata !140, metadata !"to_uint64", metadata !"to_uint64", metadata !"_ZNK11ap_int_baseILi64ELb0ELb1EE9to_uint64Ev", metadata !141, i32 1726, metadata !338, i1 false, i1 false, i32 0, i32 0, null, i32 256, i1 false, null, null, i32 0, metadata !153, i32 1726} ; [ DW_TAG_subprogram ]
!338 = metadata !{i32 786453, i32 0, metadata !"", i32 0, i32 0, i64 0, i64 0, i64 0, i32 0, null, metadata !339, i32 0, i32 0} ; [ DW_TAG_subroutine_type ]
!339 = metadata !{metadata !225, metadata !306}
!340 = metadata !{i32 786478, i32 0, metadata !140, metadata !"to_double", metadata !"to_double", metadata !"_ZNK11ap_int_baseILi64ELb0ELb1EE9to_doubleEv", metadata !141, i32 1727, metadata !341, i1 false, i1 false, i32 0, i32 0, null, i32 256, i1 false, null, null, i32 0, metadata !153, i32 1727} ; [ DW_TAG_subprogram ]
!341 = metadata !{i32 786453, i32 0, metadata !"", i32 0, i32 0, i64 0, i64 0, i64 0, i32 0, null, metadata !342, i32 0, i32 0} ; [ DW_TAG_subroutine_type ]
!342 = metadata !{metadata !239, metadata !306}
!343 = metadata !{i32 786478, i32 0, metadata !140, metadata !"length", metadata !"length", metadata !"_ZNK11ap_int_baseILi64ELb0ELb1EE6lengthEv", metadata !141, i32 1741, metadata !323, i1 false, i1 false, i32 0, i32 0, null, i32 256, i1 false, null, null, i32 0, metadata !153, i32 1741} ; [ DW_TAG_subprogram ]
!344 = metadata !{i32 786478, i32 0, metadata !140, metadata !"length", metadata !"length", metadata !"_ZNVK11ap_int_baseILi64ELb0ELb1EE6lengthEv", metadata !141, i32 1742, metadata !345, i1 false, i1 false, i32 0, i32 0, null, i32 256, i1 false, null, null, i32 0, metadata !153, i32 1742} ; [ DW_TAG_subprogram ]
!345 = metadata !{i32 786453, i32 0, metadata !"", i32 0, i32 0, i64 0, i64 0, i64 0, i32 0, null, metadata !346, i32 0, i32 0} ; [ DW_TAG_subroutine_type ]
!346 = metadata !{metadata !162, metadata !347}
!347 = metadata !{i32 786447, i32 0, metadata !"", i32 0, i32 0, i64 64, i64 64, i64 0, i32 64, metadata !181} ; [ DW_TAG_pointer_type ]
!348 = metadata !{i32 786478, i32 0, metadata !140, metadata !"reverse", metadata !"reverse", metadata !"_ZN11ap_int_baseILi64ELb0ELb1EE7reverseEv", metadata !141, i32 1747, metadata !349, i1 false, i1 false, i32 0, i32 0, null, i32 256, i1 false, null, null, i32 0, metadata !153, i32 1747} ; [ DW_TAG_subprogram ]
!349 = metadata !{i32 786453, i32 0, metadata !"", i32 0, i32 0, i64 0, i64 0, i64 0, i32 0, null, metadata !350, i32 0, i32 0} ; [ DW_TAG_subroutine_type ]
!350 = metadata !{metadata !263, metadata !168}
!351 = metadata !{i32 786478, i32 0, metadata !140, metadata !"iszero", metadata !"iszero", metadata !"_ZNK11ap_int_baseILi64ELb0ELb1EE6iszeroEv", metadata !141, i32 1753, metadata !308, i1 false, i1 false, i32 0, i32 0, null, i32 256, i1 false, null, null, i32 0, metadata !153, i32 1753} ; [ DW_TAG_subprogram ]
!352 = metadata !{i32 786478, i32 0, metadata !140, metadata !"is_zero", metadata !"is_zero", metadata !"_ZNK11ap_int_baseILi64ELb0ELb1EE7is_zeroEv", metadata !141, i32 1758, metadata !308, i1 false, i1 false, i32 0, i32 0, null, i32 256, i1 false, null, null, i32 0, metadata !153, i32 1758} ; [ DW_TAG_subprogram ]
!353 = metadata !{i32 786478, i32 0, metadata !140, metadata !"sign", metadata !"sign", metadata !"_ZNK11ap_int_baseILi64ELb0ELb1EE4signEv", metadata !141, i32 1763, metadata !308, i1 false, i1 false, i32 0, i32 0, null, i32 256, i1 false, null, null, i32 0, metadata !153, i32 1763} ; [ DW_TAG_subprogram ]
!354 = metadata !{i32 786478, i32 0, metadata !140, metadata !"clear", metadata !"clear", metadata !"_ZN11ap_int_baseILi64ELb0ELb1EE5clearEi", metadata !141, i32 1771, metadata !203, i1 false, i1 false, i32 0, i32 0, null, i32 256, i1 false, null, null, i32 0, metadata !153, i32 1771} ; [ DW_TAG_subprogram ]
!355 = metadata !{i32 786478, i32 0, metadata !140, metadata !"invert", metadata !"invert", metadata !"_ZN11ap_int_baseILi64ELb0ELb1EE6invertEi", metadata !141, i32 1777, metadata !203, i1 false, i1 false, i32 0, i32 0, null, i32 256, i1 false, null, null, i32 0, metadata !153, i32 1777} ; [ DW_TAG_subprogram ]
!356 = metadata !{i32 786478, i32 0, metadata !140, metadata !"test", metadata !"test", metadata !"_ZNK11ap_int_baseILi64ELb0ELb1EE4testEi", metadata !141, i32 1785, metadata !357, i1 false, i1 false, i32 0, i32 0, null, i32 256, i1 false, null, null, i32 0, metadata !153, i32 1785} ; [ DW_TAG_subprogram ]
!357 = metadata !{i32 786453, i32 0, metadata !"", i32 0, i32 0, i64 0, i64 0, i64 0, i32 0, null, metadata !358, i32 0, i32 0} ; [ DW_TAG_subroutine_type ]
!358 = metadata !{metadata !164, metadata !306, metadata !162}
!359 = metadata !{i32 786478, i32 0, metadata !140, metadata !"set", metadata !"set", metadata !"_ZN11ap_int_baseILi64ELb0ELb1EE3setEi", metadata !141, i32 1791, metadata !203, i1 false, i1 false, i32 0, i32 0, null, i32 256, i1 false, null, null, i32 0, metadata !153, i32 1791} ; [ DW_TAG_subprogram ]
!360 = metadata !{i32 786478, i32 0, metadata !140, metadata !"set", metadata !"set", metadata !"_ZN11ap_int_baseILi64ELb0ELb1EE3setEib", metadata !141, i32 1797, metadata !361, i1 false, i1 false, i32 0, i32 0, null, i32 256, i1 false, null, null, i32 0, metadata !153, i32 1797} ; [ DW_TAG_subprogram ]
!361 = metadata !{i32 786453, i32 0, metadata !"", i32 0, i32 0, i64 0, i64 0, i64 0, i32 0, null, metadata !362, i32 0, i32 0} ; [ DW_TAG_subroutine_type ]
!362 = metadata !{null, metadata !168, metadata !162, metadata !164}
!363 = metadata !{i32 786478, i32 0, metadata !140, metadata !"lrotate", metadata !"lrotate", metadata !"_ZN11ap_int_baseILi64ELb0ELb1EE7lrotateEi", metadata !141, i32 1804, metadata !203, i1 false, i1 false, i32 0, i32 0, null, i32 256, i1 false, null, null, i32 0, metadata !153, i32 1804} ; [ DW_TAG_subprogram ]
!364 = metadata !{i32 786478, i32 0, metadata !140, metadata !"rrotate", metadata !"rrotate", metadata !"_ZN11ap_int_baseILi64ELb0ELb1EE7rrotateEi", metadata !141, i32 1813, metadata !203, i1 false, i1 false, i32 0, i32 0, null, i32 256, i1 false, null, null, i32 0, metadata !153, i32 1813} ; [ DW_TAG_subprogram ]
!365 = metadata !{i32 786478, i32 0, metadata !140, metadata !"set_bit", metadata !"set_bit", metadata !"_ZN11ap_int_baseILi64ELb0ELb1EE7set_bitEib", metadata !141, i32 1821, metadata !361, i1 false, i1 false, i32 0, i32 0, null, i32 256, i1 false, null, null, i32 0, metadata !153, i32 1821} ; [ DW_TAG_subprogram ]
!366 = metadata !{i32 786478, i32 0, metadata !140, metadata !"get_bit", metadata !"get_bit", metadata !"_ZNK11ap_int_baseILi64ELb0ELb1EE7get_bitEi", metadata !141, i32 1826, metadata !357, i1 false, i1 false, i32 0, i32 0, null, i32 256, i1 false, null, null, i32 0, metadata !153, i32 1826} ; [ DW_TAG_subprogram ]
!367 = metadata !{i32 786478, i32 0, metadata !140, metadata !"b_not", metadata !"b_not", metadata !"_ZN11ap_int_baseILi64ELb0ELb1EE5b_notEv", metadata !141, i32 1831, metadata !166, i1 false, i1 false, i32 0, i32 0, null, i32 256, i1 false, null, null, i32 0, metadata !153, i32 1831} ; [ DW_TAG_subprogram ]
!368 = metadata !{i32 786478, i32 0, metadata !140, metadata !"countLeadingZeros", metadata !"countLeadingZeros", metadata !"_ZN11ap_int_baseILi64ELb0ELb1EE17countLeadingZerosEv", metadata !141, i32 1838, metadata !369, i1 false, i1 false, i32 0, i32 0, null, i32 256, i1 false, null, null, i32 0, metadata !153, i32 1838} ; [ DW_TAG_subprogram ]
!369 = metadata !{i32 786453, i32 0, metadata !"", i32 0, i32 0, i64 0, i64 0, i64 0, i32 0, null, metadata !370, i32 0, i32 0} ; [ DW_TAG_subroutine_type ]
!370 = metadata !{metadata !162, metadata !168}
!371 = metadata !{i32 786478, i32 0, metadata !140, metadata !"operator++", metadata !"operator++", metadata !"_ZN11ap_int_baseILi64ELb0ELb1EEppEv", metadata !141, i32 1895, metadata !349, i1 false, i1 false, i32 0, i32 0, null, i32 256, i1 false, null, null, i32 0, metadata !153, i32 1895} ; [ DW_TAG_subprogram ]
!372 = metadata !{i32 786478, i32 0, metadata !140, metadata !"operator--", metadata !"operator--", metadata !"_ZN11ap_int_baseILi64ELb0ELb1EEmmEv", metadata !141, i32 1899, metadata !349, i1 false, i1 false, i32 0, i32 0, null, i32 256, i1 false, null, null, i32 0, metadata !153, i32 1899} ; [ DW_TAG_subprogram ]
!373 = metadata !{i32 786478, i32 0, metadata !140, metadata !"operator++", metadata !"operator++", metadata !"_ZN11ap_int_baseILi64ELb0ELb1EEppEi", metadata !141, i32 1907, metadata !374, i1 false, i1 false, i32 0, i32 0, null, i32 256, i1 false, null, null, i32 0, metadata !153, i32 1907} ; [ DW_TAG_subprogram ]
!374 = metadata !{i32 786453, i32 0, metadata !"", i32 0, i32 0, i64 0, i64 0, i64 0, i32 0, null, metadata !375, i32 0, i32 0} ; [ DW_TAG_subroutine_type ]
!375 = metadata !{metadata !173, metadata !168, metadata !162}
!376 = metadata !{i32 786478, i32 0, metadata !140, metadata !"operator--", metadata !"operator--", metadata !"_ZN11ap_int_baseILi64ELb0ELb1EEmmEi", metadata !141, i32 1912, metadata !374, i1 false, i1 false, i32 0, i32 0, null, i32 256, i1 false, null, null, i32 0, metadata !153, i32 1912} ; [ DW_TAG_subprogram ]
!377 = metadata !{i32 786478, i32 0, metadata !140, metadata !"operator+", metadata !"operator+", metadata !"_ZNK11ap_int_baseILi64ELb0ELb1EEpsEv", metadata !141, i32 1921, metadata !378, i1 false, i1 false, i32 0, i32 0, null, i32 256, i1 false, null, null, i32 0, metadata !153, i32 1921} ; [ DW_TAG_subprogram ]
!378 = metadata !{i32 786453, i32 0, metadata !"", i32 0, i32 0, i64 0, i64 0, i64 0, i32 0, null, metadata !379, i32 0, i32 0} ; [ DW_TAG_subroutine_type ]
!379 = metadata !{metadata !140, metadata !306}
!380 = metadata !{i32 786478, i32 0, metadata !140, metadata !"operator!", metadata !"operator!", metadata !"_ZNK11ap_int_baseILi64ELb0ELb1EEntEv", metadata !141, i32 1927, metadata !308, i1 false, i1 false, i32 0, i32 0, null, i32 256, i1 false, null, null, i32 0, metadata !153, i32 1927} ; [ DW_TAG_subprogram ]
!381 = metadata !{i32 786478, i32 0, metadata !140, metadata !"operator-", metadata !"operator-", metadata !"_ZNK11ap_int_baseILi64ELb0ELb1EEngEv", metadata !141, i32 1932, metadata !382, i1 false, i1 false, i32 0, i32 0, null, i32 256, i1 false, null, null, i32 0, metadata !153, i32 1932} ; [ DW_TAG_subprogram ]
!382 = metadata !{i32 786453, i32 0, metadata !"", i32 0, i32 0, i64 0, i64 0, i64 0, i32 0, null, metadata !383, i32 0, i32 0} ; [ DW_TAG_subroutine_type ]
!383 = metadata !{metadata !384, metadata !306}
!384 = metadata !{i32 786434, null, metadata !"ap_int_base<64, true, true>", metadata !141, i32 1453, i64 64, i64 64, i32 0, i32 0, null, metadata !385, i32 0, null, metadata !633} ; [ DW_TAG_class_type ]
!385 = metadata !{metadata !386, metadata !397, metadata !401, metadata !404, metadata !407, metadata !410, metadata !413, metadata !416, metadata !419, metadata !422, metadata !425, metadata !428, metadata !431, metadata !434, metadata !437, metadata !440, metadata !443, metadata !446, metadata !449, metadata !454, metadata !459, metadata !464, metadata !465, metadata !469, metadata !472, metadata !475, metadata !478, metadata !481, metadata !484, metadata !487, metadata !490, metadata !493, metadata !496, metadata !499, metadata !502, metadata !510, metadata !513, metadata !516, metadata !519, metadata !522, metadata !525, metadata !528, metadata !531, metadata !534, metadata !537, metadata !540, metadata !543, metadata !546, metadata !547, metadata !551, metadata !554, metadata !555, metadata !556, metadata !557, metadata !558, metadata !559, metadata !562, metadata !563, metadata !566, metadata !567, metadata !568, metadata !569, metadata !570, metadata !571, metadata !574, metadata !575, metadata !576, metadata !579, metadata !580, metadata !583, metadata !584, metadata !585, metadata !591, metadata !592, metadata !595, metadata !596, metadata !600, metadata !601, metadata !602, metadata !603, metadata !606, metadata !607, metadata !608, metadata !609, metadata !610, metadata !611, metadata !612, metadata !613, metadata !614, metadata !615, metadata !616, metadata !617, metadata !627, metadata !630}
!386 = metadata !{i32 786460, metadata !384, null, metadata !141, i32 0, i64 0, i64 0, i64 0, i32 0, metadata !387} ; [ DW_TAG_inheritance ]
!387 = metadata !{i32 786434, null, metadata !"ssdm_int<64 + 1024 * 0, true>", metadata !145, i32 68, i64 64, i64 64, i32 0, i32 0, null, metadata !388, i32 0, null, metadata !395} ; [ DW_TAG_class_type ]
!388 = metadata !{metadata !389, metadata !391}
!389 = metadata !{i32 786445, metadata !387, metadata !"V", metadata !145, i32 68, i64 64, i64 64, i64 0, i32 0, metadata !390} ; [ DW_TAG_member ]
!390 = metadata !{i32 786468, null, metadata !"int64", null, i32 0, i64 64, i64 64, i64 0, i32 0, i32 5} ; [ DW_TAG_base_type ]
!391 = metadata !{i32 786478, i32 0, metadata !387, metadata !"ssdm_int", metadata !"ssdm_int", metadata !"", metadata !145, i32 68, metadata !392, i1 false, i1 false, i32 0, i32 0, null, i32 256, i1 false, null, null, i32 0, metadata !153, i32 68} ; [ DW_TAG_subprogram ]
!392 = metadata !{i32 786453, i32 0, metadata !"", i32 0, i32 0, i64 0, i64 0, i64 0, i32 0, null, metadata !393, i32 0, i32 0} ; [ DW_TAG_subroutine_type ]
!393 = metadata !{null, metadata !394}
!394 = metadata !{i32 786447, i32 0, metadata !"", i32 0, i32 0, i64 64, i64 64, i64 0, i32 64, metadata !387} ; [ DW_TAG_pointer_type ]
!395 = metadata !{metadata !161, metadata !396}
!396 = metadata !{i32 786480, null, metadata !"_AP_S", metadata !164, i64 1, null, i32 0, i32 0} ; [ DW_TAG_template_value_parameter ]
!397 = metadata !{i32 786478, i32 0, metadata !384, metadata !"ap_int_base", metadata !"ap_int_base", metadata !"", metadata !141, i32 1494, metadata !398, i1 false, i1 false, i32 0, i32 0, null, i32 256, i1 false, null, null, i32 0, metadata !153, i32 1494} ; [ DW_TAG_subprogram ]
!398 = metadata !{i32 786453, i32 0, metadata !"", i32 0, i32 0, i64 0, i64 0, i64 0, i32 0, null, metadata !399, i32 0, i32 0} ; [ DW_TAG_subroutine_type ]
!399 = metadata !{null, metadata !400}
!400 = metadata !{i32 786447, i32 0, metadata !"", i32 0, i32 0, i64 64, i64 64, i64 0, i32 64, metadata !384} ; [ DW_TAG_pointer_type ]
!401 = metadata !{i32 786478, i32 0, metadata !384, metadata !"ap_int_base", metadata !"ap_int_base", metadata !"", metadata !141, i32 1516, metadata !402, i1 false, i1 false, i32 0, i32 0, null, i32 384, i1 false, null, null, i32 0, metadata !153, i32 1516} ; [ DW_TAG_subprogram ]
!402 = metadata !{i32 786453, i32 0, metadata !"", i32 0, i32 0, i64 0, i64 0, i64 0, i32 0, null, metadata !403, i32 0, i32 0} ; [ DW_TAG_subroutine_type ]
!403 = metadata !{null, metadata !400, metadata !164}
!404 = metadata !{i32 786478, i32 0, metadata !384, metadata !"ap_int_base", metadata !"ap_int_base", metadata !"", metadata !141, i32 1517, metadata !405, i1 false, i1 false, i32 0, i32 0, null, i32 384, i1 false, null, null, i32 0, metadata !153, i32 1517} ; [ DW_TAG_subprogram ]
!405 = metadata !{i32 786453, i32 0, metadata !"", i32 0, i32 0, i64 0, i64 0, i64 0, i32 0, null, metadata !406, i32 0, i32 0} ; [ DW_TAG_subroutine_type ]
!406 = metadata !{null, metadata !400, metadata !189}
!407 = metadata !{i32 786478, i32 0, metadata !384, metadata !"ap_int_base", metadata !"ap_int_base", metadata !"", metadata !141, i32 1518, metadata !408, i1 false, i1 false, i32 0, i32 0, null, i32 384, i1 false, null, null, i32 0, metadata !153, i32 1518} ; [ DW_TAG_subprogram ]
!408 = metadata !{i32 786453, i32 0, metadata !"", i32 0, i32 0, i64 0, i64 0, i64 0, i32 0, null, metadata !409, i32 0, i32 0} ; [ DW_TAG_subroutine_type ]
!409 = metadata !{null, metadata !400, metadata !193}
!410 = metadata !{i32 786478, i32 0, metadata !384, metadata !"ap_int_base", metadata !"ap_int_base", metadata !"", metadata !141, i32 1519, metadata !411, i1 false, i1 false, i32 0, i32 0, null, i32 384, i1 false, null, null, i32 0, metadata !153, i32 1519} ; [ DW_TAG_subprogram ]
!411 = metadata !{i32 786453, i32 0, metadata !"", i32 0, i32 0, i64 0, i64 0, i64 0, i32 0, null, metadata !412, i32 0, i32 0} ; [ DW_TAG_subroutine_type ]
!412 = metadata !{null, metadata !400, metadata !197}
!413 = metadata !{i32 786478, i32 0, metadata !384, metadata !"ap_int_base", metadata !"ap_int_base", metadata !"", metadata !141, i32 1520, metadata !414, i1 false, i1 false, i32 0, i32 0, null, i32 384, i1 false, null, null, i32 0, metadata !153, i32 1520} ; [ DW_TAG_subprogram ]
!414 = metadata !{i32 786453, i32 0, metadata !"", i32 0, i32 0, i64 0, i64 0, i64 0, i32 0, null, metadata !415, i32 0, i32 0} ; [ DW_TAG_subroutine_type ]
!415 = metadata !{null, metadata !400, metadata !201}
!416 = metadata !{i32 786478, i32 0, metadata !384, metadata !"ap_int_base", metadata !"ap_int_base", metadata !"", metadata !141, i32 1521, metadata !417, i1 false, i1 false, i32 0, i32 0, null, i32 384, i1 false, null, null, i32 0, metadata !153, i32 1521} ; [ DW_TAG_subprogram ]
!417 = metadata !{i32 786453, i32 0, metadata !"", i32 0, i32 0, i64 0, i64 0, i64 0, i32 0, null, metadata !418, i32 0, i32 0} ; [ DW_TAG_subroutine_type ]
!418 = metadata !{null, metadata !400, metadata !162}
!419 = metadata !{i32 786478, i32 0, metadata !384, metadata !"ap_int_base", metadata !"ap_int_base", metadata !"", metadata !141, i32 1522, metadata !420, i1 false, i1 false, i32 0, i32 0, null, i32 384, i1 false, null, null, i32 0, metadata !153, i32 1522} ; [ DW_TAG_subprogram ]
!420 = metadata !{i32 786453, i32 0, metadata !"", i32 0, i32 0, i64 0, i64 0, i64 0, i32 0, null, metadata !421, i32 0, i32 0} ; [ DW_TAG_subroutine_type ]
!421 = metadata !{null, metadata !400, metadata !208}
!422 = metadata !{i32 786478, i32 0, metadata !384, metadata !"ap_int_base", metadata !"ap_int_base", metadata !"", metadata !141, i32 1523, metadata !423, i1 false, i1 false, i32 0, i32 0, null, i32 384, i1 false, null, null, i32 0, metadata !153, i32 1523} ; [ DW_TAG_subprogram ]
!423 = metadata !{i32 786453, i32 0, metadata !"", i32 0, i32 0, i64 0, i64 0, i64 0, i32 0, null, metadata !424, i32 0, i32 0} ; [ DW_TAG_subroutine_type ]
!424 = metadata !{null, metadata !400, metadata !212}
!425 = metadata !{i32 786478, i32 0, metadata !384, metadata !"ap_int_base", metadata !"ap_int_base", metadata !"", metadata !141, i32 1524, metadata !426, i1 false, i1 false, i32 0, i32 0, null, i32 384, i1 false, null, null, i32 0, metadata !153, i32 1524} ; [ DW_TAG_subprogram ]
!426 = metadata !{i32 786453, i32 0, metadata !"", i32 0, i32 0, i64 0, i64 0, i64 0, i32 0, null, metadata !427, i32 0, i32 0} ; [ DW_TAG_subroutine_type ]
!427 = metadata !{null, metadata !400, metadata !216}
!428 = metadata !{i32 786478, i32 0, metadata !384, metadata !"ap_int_base", metadata !"ap_int_base", metadata !"", metadata !141, i32 1525, metadata !429, i1 false, i1 false, i32 0, i32 0, null, i32 384, i1 false, null, null, i32 0, metadata !153, i32 1525} ; [ DW_TAG_subprogram ]
!429 = metadata !{i32 786453, i32 0, metadata !"", i32 0, i32 0, i64 0, i64 0, i64 0, i32 0, null, metadata !430, i32 0, i32 0} ; [ DW_TAG_subroutine_type ]
!430 = metadata !{null, metadata !400, metadata !220}
!431 = metadata !{i32 786478, i32 0, metadata !384, metadata !"ap_int_base", metadata !"ap_int_base", metadata !"", metadata !141, i32 1526, metadata !432, i1 false, i1 false, i32 0, i32 0, null, i32 384, i1 false, null, null, i32 0, metadata !153, i32 1526} ; [ DW_TAG_subprogram ]
!432 = metadata !{i32 786453, i32 0, metadata !"", i32 0, i32 0, i64 0, i64 0, i64 0, i32 0, null, metadata !433, i32 0, i32 0} ; [ DW_TAG_subroutine_type ]
!433 = metadata !{null, metadata !400, metadata !225}
!434 = metadata !{i32 786478, i32 0, metadata !384, metadata !"ap_int_base", metadata !"ap_int_base", metadata !"", metadata !141, i32 1527, metadata !435, i1 false, i1 false, i32 0, i32 0, null, i32 384, i1 false, null, null, i32 0, metadata !153, i32 1527} ; [ DW_TAG_subprogram ]
!435 = metadata !{i32 786453, i32 0, metadata !"", i32 0, i32 0, i64 0, i64 0, i64 0, i32 0, null, metadata !436, i32 0, i32 0} ; [ DW_TAG_subroutine_type ]
!436 = metadata !{null, metadata !400, metadata !230}
!437 = metadata !{i32 786478, i32 0, metadata !384, metadata !"ap_int_base", metadata !"ap_int_base", metadata !"", metadata !141, i32 1528, metadata !438, i1 false, i1 false, i32 0, i32 0, null, i32 384, i1 false, null, null, i32 0, metadata !153, i32 1528} ; [ DW_TAG_subprogram ]
!438 = metadata !{i32 786453, i32 0, metadata !"", i32 0, i32 0, i64 0, i64 0, i64 0, i32 0, null, metadata !439, i32 0, i32 0} ; [ DW_TAG_subroutine_type ]
!439 = metadata !{null, metadata !400, metadata !235}
!440 = metadata !{i32 786478, i32 0, metadata !384, metadata !"ap_int_base", metadata !"ap_int_base", metadata !"", metadata !141, i32 1529, metadata !441, i1 false, i1 false, i32 0, i32 0, null, i32 384, i1 false, null, null, i32 0, metadata !153, i32 1529} ; [ DW_TAG_subprogram ]
!441 = metadata !{i32 786453, i32 0, metadata !"", i32 0, i32 0, i64 0, i64 0, i64 0, i32 0, null, metadata !442, i32 0, i32 0} ; [ DW_TAG_subroutine_type ]
!442 = metadata !{null, metadata !400, metadata !239}
!443 = metadata !{i32 786478, i32 0, metadata !384, metadata !"ap_int_base", metadata !"ap_int_base", metadata !"", metadata !141, i32 1556, metadata !444, i1 false, i1 false, i32 0, i32 0, null, i32 256, i1 false, null, null, i32 0, metadata !153, i32 1556} ; [ DW_TAG_subprogram ]
!444 = metadata !{i32 786453, i32 0, metadata !"", i32 0, i32 0, i64 0, i64 0, i64 0, i32 0, null, metadata !445, i32 0, i32 0} ; [ DW_TAG_subroutine_type ]
!445 = metadata !{null, metadata !400, metadata !243}
!446 = metadata !{i32 786478, i32 0, metadata !384, metadata !"ap_int_base", metadata !"ap_int_base", metadata !"", metadata !141, i32 1563, metadata !447, i1 false, i1 false, i32 0, i32 0, null, i32 256, i1 false, null, null, i32 0, metadata !153, i32 1563} ; [ DW_TAG_subprogram ]
!447 = metadata !{i32 786453, i32 0, metadata !"", i32 0, i32 0, i64 0, i64 0, i64 0, i32 0, null, metadata !448, i32 0, i32 0} ; [ DW_TAG_subroutine_type ]
!448 = metadata !{null, metadata !400, metadata !243, metadata !189}
!449 = metadata !{i32 786478, i32 0, metadata !384, metadata !"read", metadata !"read", metadata !"_ZNV11ap_int_baseILi64ELb1ELb1EE4readEv", metadata !141, i32 1584, metadata !450, i1 false, i1 false, i32 0, i32 0, null, i32 256, i1 false, null, null, i32 0, metadata !153, i32 1584} ; [ DW_TAG_subprogram ]
!450 = metadata !{i32 786453, i32 0, metadata !"", i32 0, i32 0, i64 0, i64 0, i64 0, i32 0, null, metadata !451, i32 0, i32 0} ; [ DW_TAG_subroutine_type ]
!451 = metadata !{metadata !384, metadata !452}
!452 = metadata !{i32 786447, i32 0, metadata !"", i32 0, i32 0, i64 64, i64 64, i64 0, i32 64, metadata !453} ; [ DW_TAG_pointer_type ]
!453 = metadata !{i32 786485, null, metadata !"", null, i32 0, i64 0, i64 0, i64 0, i32 0, metadata !384} ; [ DW_TAG_volatile_type ]
!454 = metadata !{i32 786478, i32 0, metadata !384, metadata !"write", metadata !"write", metadata !"_ZNV11ap_int_baseILi64ELb1ELb1EE5writeERKS0_", metadata !141, i32 1590, metadata !455, i1 false, i1 false, i32 0, i32 0, null, i32 256, i1 false, null, null, i32 0, metadata !153, i32 1590} ; [ DW_TAG_subprogram ]
!455 = metadata !{i32 786453, i32 0, metadata !"", i32 0, i32 0, i64 0, i64 0, i64 0, i32 0, null, metadata !456, i32 0, i32 0} ; [ DW_TAG_subroutine_type ]
!456 = metadata !{null, metadata !452, metadata !457}
!457 = metadata !{i32 786448, null, null, null, i32 0, i64 0, i64 0, i64 0, i32 0, metadata !458} ; [ DW_TAG_reference_type ]
!458 = metadata !{i32 786470, null, metadata !"", null, i32 0, i64 0, i64 0, i64 0, i32 0, metadata !384} ; [ DW_TAG_const_type ]
!459 = metadata !{i32 786478, i32 0, metadata !384, metadata !"operator=", metadata !"operator=", metadata !"_ZNV11ap_int_baseILi64ELb1ELb1EEaSERVKS0_", metadata !141, i32 1602, metadata !460, i1 false, i1 false, i32 0, i32 0, null, i32 256, i1 false, null, null, i32 0, metadata !153, i32 1602} ; [ DW_TAG_subprogram ]
!460 = metadata !{i32 786453, i32 0, metadata !"", i32 0, i32 0, i64 0, i64 0, i64 0, i32 0, null, metadata !461, i32 0, i32 0} ; [ DW_TAG_subroutine_type ]
!461 = metadata !{null, metadata !452, metadata !462}
!462 = metadata !{i32 786448, null, null, null, i32 0, i64 0, i64 0, i64 0, i32 0, metadata !463} ; [ DW_TAG_reference_type ]
!463 = metadata !{i32 786470, null, metadata !"", null, i32 0, i64 0, i64 0, i64 0, i32 0, metadata !453} ; [ DW_TAG_const_type ]
!464 = metadata !{i32 786478, i32 0, metadata !384, metadata !"operator=", metadata !"operator=", metadata !"_ZNV11ap_int_baseILi64ELb1ELb1EEaSERKS0_", metadata !141, i32 1611, metadata !455, i1 false, i1 false, i32 0, i32 0, null, i32 256, i1 false, null, null, i32 0, metadata !153, i32 1611} ; [ DW_TAG_subprogram ]
!465 = metadata !{i32 786478, i32 0, metadata !384, metadata !"operator=", metadata !"operator=", metadata !"_ZN11ap_int_baseILi64ELb1ELb1EEaSERVKS0_", metadata !141, i32 1634, metadata !466, i1 false, i1 false, i32 0, i32 0, null, i32 256, i1 false, null, null, i32 0, metadata !153, i32 1634} ; [ DW_TAG_subprogram ]
!466 = metadata !{i32 786453, i32 0, metadata !"", i32 0, i32 0, i64 0, i64 0, i64 0, i32 0, null, metadata !467, i32 0, i32 0} ; [ DW_TAG_subroutine_type ]
!467 = metadata !{metadata !468, metadata !400, metadata !462}
!468 = metadata !{i32 786448, null, null, null, i32 0, i64 0, i64 0, i64 0, i32 0, metadata !384} ; [ DW_TAG_reference_type ]
!469 = metadata !{i32 786478, i32 0, metadata !384, metadata !"operator=", metadata !"operator=", metadata !"_ZN11ap_int_baseILi64ELb1ELb1EEaSERKS0_", metadata !141, i32 1639, metadata !470, i1 false, i1 false, i32 0, i32 0, null, i32 256, i1 false, null, null, i32 0, metadata !153, i32 1639} ; [ DW_TAG_subprogram ]
!470 = metadata !{i32 786453, i32 0, metadata !"", i32 0, i32 0, i64 0, i64 0, i64 0, i32 0, null, metadata !471, i32 0, i32 0} ; [ DW_TAG_subroutine_type ]
!471 = metadata !{metadata !468, metadata !400, metadata !457}
!472 = metadata !{i32 786478, i32 0, metadata !384, metadata !"operator=", metadata !"operator=", metadata !"_ZN11ap_int_baseILi64ELb1ELb1EEaSEPKc", metadata !141, i32 1643, metadata !473, i1 false, i1 false, i32 0, i32 0, null, i32 256, i1 false, null, null, i32 0, metadata !153, i32 1643} ; [ DW_TAG_subprogram ]
!473 = metadata !{i32 786453, i32 0, metadata !"", i32 0, i32 0, i64 0, i64 0, i64 0, i32 0, null, metadata !474, i32 0, i32 0} ; [ DW_TAG_subroutine_type ]
!474 = metadata !{metadata !468, metadata !400, metadata !243}
!475 = metadata !{i32 786478, i32 0, metadata !384, metadata !"set", metadata !"set", metadata !"_ZN11ap_int_baseILi64ELb1ELb1EE3setEPKca", metadata !141, i32 1651, metadata !476, i1 false, i1 false, i32 0, i32 0, null, i32 256, i1 false, null, null, i32 0, metadata !153, i32 1651} ; [ DW_TAG_subprogram ]
!476 = metadata !{i32 786453, i32 0, metadata !"", i32 0, i32 0, i64 0, i64 0, i64 0, i32 0, null, metadata !477, i32 0, i32 0} ; [ DW_TAG_subroutine_type ]
!477 = metadata !{metadata !468, metadata !400, metadata !243, metadata !189}
!478 = metadata !{i32 786478, i32 0, metadata !384, metadata !"operator=", metadata !"operator=", metadata !"_ZN11ap_int_baseILi64ELb1ELb1EEaSEa", metadata !141, i32 1665, metadata !479, i1 false, i1 false, i32 0, i32 0, null, i32 256, i1 false, null, null, i32 0, metadata !153, i32 1665} ; [ DW_TAG_subprogram ]
!479 = metadata !{i32 786453, i32 0, metadata !"", i32 0, i32 0, i64 0, i64 0, i64 0, i32 0, null, metadata !480, i32 0, i32 0} ; [ DW_TAG_subroutine_type ]
!480 = metadata !{metadata !468, metadata !400, metadata !189}
!481 = metadata !{i32 786478, i32 0, metadata !384, metadata !"operator=", metadata !"operator=", metadata !"_ZN11ap_int_baseILi64ELb1ELb1EEaSEh", metadata !141, i32 1666, metadata !482, i1 false, i1 false, i32 0, i32 0, null, i32 256, i1 false, null, null, i32 0, metadata !153, i32 1666} ; [ DW_TAG_subprogram ]
!482 = metadata !{i32 786453, i32 0, metadata !"", i32 0, i32 0, i64 0, i64 0, i64 0, i32 0, null, metadata !483, i32 0, i32 0} ; [ DW_TAG_subroutine_type ]
!483 = metadata !{metadata !468, metadata !400, metadata !193}
!484 = metadata !{i32 786478, i32 0, metadata !384, metadata !"operator=", metadata !"operator=", metadata !"_ZN11ap_int_baseILi64ELb1ELb1EEaSEs", metadata !141, i32 1667, metadata !485, i1 false, i1 false, i32 0, i32 0, null, i32 256, i1 false, null, null, i32 0, metadata !153, i32 1667} ; [ DW_TAG_subprogram ]
!485 = metadata !{i32 786453, i32 0, metadata !"", i32 0, i32 0, i64 0, i64 0, i64 0, i32 0, null, metadata !486, i32 0, i32 0} ; [ DW_TAG_subroutine_type ]
!486 = metadata !{metadata !468, metadata !400, metadata !197}
!487 = metadata !{i32 786478, i32 0, metadata !384, metadata !"operator=", metadata !"operator=", metadata !"_ZN11ap_int_baseILi64ELb1ELb1EEaSEt", metadata !141, i32 1668, metadata !488, i1 false, i1 false, i32 0, i32 0, null, i32 256, i1 false, null, null, i32 0, metadata !153, i32 1668} ; [ DW_TAG_subprogram ]
!488 = metadata !{i32 786453, i32 0, metadata !"", i32 0, i32 0, i64 0, i64 0, i64 0, i32 0, null, metadata !489, i32 0, i32 0} ; [ DW_TAG_subroutine_type ]
!489 = metadata !{metadata !468, metadata !400, metadata !201}
!490 = metadata !{i32 786478, i32 0, metadata !384, metadata !"operator=", metadata !"operator=", metadata !"_ZN11ap_int_baseILi64ELb1ELb1EEaSEi", metadata !141, i32 1669, metadata !491, i1 false, i1 false, i32 0, i32 0, null, i32 256, i1 false, null, null, i32 0, metadata !153, i32 1669} ; [ DW_TAG_subprogram ]
!491 = metadata !{i32 786453, i32 0, metadata !"", i32 0, i32 0, i64 0, i64 0, i64 0, i32 0, null, metadata !492, i32 0, i32 0} ; [ DW_TAG_subroutine_type ]
!492 = metadata !{metadata !468, metadata !400, metadata !162}
!493 = metadata !{i32 786478, i32 0, metadata !384, metadata !"operator=", metadata !"operator=", metadata !"_ZN11ap_int_baseILi64ELb1ELb1EEaSEj", metadata !141, i32 1670, metadata !494, i1 false, i1 false, i32 0, i32 0, null, i32 256, i1 false, null, null, i32 0, metadata !153, i32 1670} ; [ DW_TAG_subprogram ]
!494 = metadata !{i32 786453, i32 0, metadata !"", i32 0, i32 0, i64 0, i64 0, i64 0, i32 0, null, metadata !495, i32 0, i32 0} ; [ DW_TAG_subroutine_type ]
!495 = metadata !{metadata !468, metadata !400, metadata !208}
!496 = metadata !{i32 786478, i32 0, metadata !384, metadata !"operator=", metadata !"operator=", metadata !"_ZN11ap_int_baseILi64ELb1ELb1EEaSEx", metadata !141, i32 1671, metadata !497, i1 false, i1 false, i32 0, i32 0, null, i32 256, i1 false, null, null, i32 0, metadata !153, i32 1671} ; [ DW_TAG_subprogram ]
!497 = metadata !{i32 786453, i32 0, metadata !"", i32 0, i32 0, i64 0, i64 0, i64 0, i32 0, null, metadata !498, i32 0, i32 0} ; [ DW_TAG_subroutine_type ]
!498 = metadata !{metadata !468, metadata !400, metadata !220}
!499 = metadata !{i32 786478, i32 0, metadata !384, metadata !"operator=", metadata !"operator=", metadata !"_ZN11ap_int_baseILi64ELb1ELb1EEaSEy", metadata !141, i32 1672, metadata !500, i1 false, i1 false, i32 0, i32 0, null, i32 256, i1 false, null, null, i32 0, metadata !153, i32 1672} ; [ DW_TAG_subprogram ]
!500 = metadata !{i32 786453, i32 0, metadata !"", i32 0, i32 0, i64 0, i64 0, i64 0, i32 0, null, metadata !501, i32 0, i32 0} ; [ DW_TAG_subroutine_type ]
!501 = metadata !{metadata !468, metadata !400, metadata !225}
!502 = metadata !{i32 786478, i32 0, metadata !384, metadata !"operator long long", metadata !"operator long long", metadata !"_ZNK11ap_int_baseILi64ELb1ELb1EEcvxEv", metadata !141, i32 1710, metadata !503, i1 false, i1 false, i32 0, i32 0, null, i32 256, i1 false, null, null, i32 0, metadata !153, i32 1710} ; [ DW_TAG_subprogram ]
!503 = metadata !{i32 786453, i32 0, metadata !"", i32 0, i32 0, i64 0, i64 0, i64 0, i32 0, null, metadata !504, i32 0, i32 0} ; [ DW_TAG_subroutine_type ]
!504 = metadata !{metadata !505, metadata !509}
!505 = metadata !{i32 786454, metadata !384, metadata !"RetType", metadata !141, i32 1458, i64 0, i64 0, i64 0, i32 0, metadata !506} ; [ DW_TAG_typedef ]
!506 = metadata !{i32 786454, metadata !507, metadata !"Type", metadata !141, i32 1415, i64 0, i64 0, i64 0, i32 0, metadata !220} ; [ DW_TAG_typedef ]
!507 = metadata !{i32 786434, null, metadata !"retval<8, true>", metadata !141, i32 1414, i64 8, i64 8, i32 0, i32 0, null, metadata !303, i32 0, null, metadata !508} ; [ DW_TAG_class_type ]
!508 = metadata !{metadata !305, metadata !396}
!509 = metadata !{i32 786447, i32 0, metadata !"", i32 0, i32 0, i64 64, i64 64, i64 0, i32 64, metadata !458} ; [ DW_TAG_pointer_type ]
!510 = metadata !{i32 786478, i32 0, metadata !384, metadata !"to_bool", metadata !"to_bool", metadata !"_ZNK11ap_int_baseILi64ELb1ELb1EE7to_boolEv", metadata !141, i32 1716, metadata !511, i1 false, i1 false, i32 0, i32 0, null, i32 256, i1 false, null, null, i32 0, metadata !153, i32 1716} ; [ DW_TAG_subprogram ]
!511 = metadata !{i32 786453, i32 0, metadata !"", i32 0, i32 0, i64 0, i64 0, i64 0, i32 0, null, metadata !512, i32 0, i32 0} ; [ DW_TAG_subroutine_type ]
!512 = metadata !{metadata !164, metadata !509}
!513 = metadata !{i32 786478, i32 0, metadata !384, metadata !"to_uchar", metadata !"to_uchar", metadata !"_ZNK11ap_int_baseILi64ELb1ELb1EE8to_ucharEv", metadata !141, i32 1717, metadata !514, i1 false, i1 false, i32 0, i32 0, null, i32 256, i1 false, null, null, i32 0, metadata !153, i32 1717} ; [ DW_TAG_subprogram ]
!514 = metadata !{i32 786453, i32 0, metadata !"", i32 0, i32 0, i64 0, i64 0, i64 0, i32 0, null, metadata !515, i32 0, i32 0} ; [ DW_TAG_subroutine_type ]
!515 = metadata !{metadata !193, metadata !509}
!516 = metadata !{i32 786478, i32 0, metadata !384, metadata !"to_char", metadata !"to_char", metadata !"_ZNK11ap_int_baseILi64ELb1ELb1EE7to_charEv", metadata !141, i32 1718, metadata !517, i1 false, i1 false, i32 0, i32 0, null, i32 256, i1 false, null, null, i32 0, metadata !153, i32 1718} ; [ DW_TAG_subprogram ]
!517 = metadata !{i32 786453, i32 0, metadata !"", i32 0, i32 0, i64 0, i64 0, i64 0, i32 0, null, metadata !518, i32 0, i32 0} ; [ DW_TAG_subroutine_type ]
!518 = metadata !{metadata !189, metadata !509}
!519 = metadata !{i32 786478, i32 0, metadata !384, metadata !"to_ushort", metadata !"to_ushort", metadata !"_ZNK11ap_int_baseILi64ELb1ELb1EE9to_ushortEv", metadata !141, i32 1719, metadata !520, i1 false, i1 false, i32 0, i32 0, null, i32 256, i1 false, null, null, i32 0, metadata !153, i32 1719} ; [ DW_TAG_subprogram ]
!520 = metadata !{i32 786453, i32 0, metadata !"", i32 0, i32 0, i64 0, i64 0, i64 0, i32 0, null, metadata !521, i32 0, i32 0} ; [ DW_TAG_subroutine_type ]
!521 = metadata !{metadata !201, metadata !509}
!522 = metadata !{i32 786478, i32 0, metadata !384, metadata !"to_short", metadata !"to_short", metadata !"_ZNK11ap_int_baseILi64ELb1ELb1EE8to_shortEv", metadata !141, i32 1720, metadata !523, i1 false, i1 false, i32 0, i32 0, null, i32 256, i1 false, null, null, i32 0, metadata !153, i32 1720} ; [ DW_TAG_subprogram ]
!523 = metadata !{i32 786453, i32 0, metadata !"", i32 0, i32 0, i64 0, i64 0, i64 0, i32 0, null, metadata !524, i32 0, i32 0} ; [ DW_TAG_subroutine_type ]
!524 = metadata !{metadata !197, metadata !509}
!525 = metadata !{i32 786478, i32 0, metadata !384, metadata !"to_int", metadata !"to_int", metadata !"_ZNK11ap_int_baseILi64ELb1ELb1EE6to_intEv", metadata !141, i32 1721, metadata !526, i1 false, i1 false, i32 0, i32 0, null, i32 256, i1 false, null, null, i32 0, metadata !153, i32 1721} ; [ DW_TAG_subprogram ]
!526 = metadata !{i32 786453, i32 0, metadata !"", i32 0, i32 0, i64 0, i64 0, i64 0, i32 0, null, metadata !527, i32 0, i32 0} ; [ DW_TAG_subroutine_type ]
!527 = metadata !{metadata !162, metadata !509}
!528 = metadata !{i32 786478, i32 0, metadata !384, metadata !"to_uint", metadata !"to_uint", metadata !"_ZNK11ap_int_baseILi64ELb1ELb1EE7to_uintEv", metadata !141, i32 1722, metadata !529, i1 false, i1 false, i32 0, i32 0, null, i32 256, i1 false, null, null, i32 0, metadata !153, i32 1722} ; [ DW_TAG_subprogram ]
!529 = metadata !{i32 786453, i32 0, metadata !"", i32 0, i32 0, i64 0, i64 0, i64 0, i32 0, null, metadata !530, i32 0, i32 0} ; [ DW_TAG_subroutine_type ]
!530 = metadata !{metadata !208, metadata !509}
!531 = metadata !{i32 786478, i32 0, metadata !384, metadata !"to_long", metadata !"to_long", metadata !"_ZNK11ap_int_baseILi64ELb1ELb1EE7to_longEv", metadata !141, i32 1723, metadata !532, i1 false, i1 false, i32 0, i32 0, null, i32 256, i1 false, null, null, i32 0, metadata !153, i32 1723} ; [ DW_TAG_subprogram ]
!532 = metadata !{i32 786453, i32 0, metadata !"", i32 0, i32 0, i64 0, i64 0, i64 0, i32 0, null, metadata !533, i32 0, i32 0} ; [ DW_TAG_subroutine_type ]
!533 = metadata !{metadata !212, metadata !509}
!534 = metadata !{i32 786478, i32 0, metadata !384, metadata !"to_ulong", metadata !"to_ulong", metadata !"_ZNK11ap_int_baseILi64ELb1ELb1EE8to_ulongEv", metadata !141, i32 1724, metadata !535, i1 false, i1 false, i32 0, i32 0, null, i32 256, i1 false, null, null, i32 0, metadata !153, i32 1724} ; [ DW_TAG_subprogram ]
!535 = metadata !{i32 786453, i32 0, metadata !"", i32 0, i32 0, i64 0, i64 0, i64 0, i32 0, null, metadata !536, i32 0, i32 0} ; [ DW_TAG_subroutine_type ]
!536 = metadata !{metadata !216, metadata !509}
!537 = metadata !{i32 786478, i32 0, metadata !384, metadata !"to_int64", metadata !"to_int64", metadata !"_ZNK11ap_int_baseILi64ELb1ELb1EE8to_int64Ev", metadata !141, i32 1725, metadata !538, i1 false, i1 false, i32 0, i32 0, null, i32 256, i1 false, null, null, i32 0, metadata !153, i32 1725} ; [ DW_TAG_subprogram ]
!538 = metadata !{i32 786453, i32 0, metadata !"", i32 0, i32 0, i64 0, i64 0, i64 0, i32 0, null, metadata !539, i32 0, i32 0} ; [ DW_TAG_subroutine_type ]
!539 = metadata !{metadata !220, metadata !509}
!540 = metadata !{i32 786478, i32 0, metadata !384, metadata !"to_uint64", metadata !"to_uint64", metadata !"_ZNK11ap_int_baseILi64ELb1ELb1EE9to_uint64Ev", metadata !141, i32 1726, metadata !541, i1 false, i1 false, i32 0, i32 0, null, i32 256, i1 false, null, null, i32 0, metadata !153, i32 1726} ; [ DW_TAG_subprogram ]
!541 = metadata !{i32 786453, i32 0, metadata !"", i32 0, i32 0, i64 0, i64 0, i64 0, i32 0, null, metadata !542, i32 0, i32 0} ; [ DW_TAG_subroutine_type ]
!542 = metadata !{metadata !225, metadata !509}
!543 = metadata !{i32 786478, i32 0, metadata !384, metadata !"to_double", metadata !"to_double", metadata !"_ZNK11ap_int_baseILi64ELb1ELb1EE9to_doubleEv", metadata !141, i32 1727, metadata !544, i1 false, i1 false, i32 0, i32 0, null, i32 256, i1 false, null, null, i32 0, metadata !153, i32 1727} ; [ DW_TAG_subprogram ]
!544 = metadata !{i32 786453, i32 0, metadata !"", i32 0, i32 0, i64 0, i64 0, i64 0, i32 0, null, metadata !545, i32 0, i32 0} ; [ DW_TAG_subroutine_type ]
!545 = metadata !{metadata !239, metadata !509}
!546 = metadata !{i32 786478, i32 0, metadata !384, metadata !"length", metadata !"length", metadata !"_ZNK11ap_int_baseILi64ELb1ELb1EE6lengthEv", metadata !141, i32 1741, metadata !526, i1 false, i1 false, i32 0, i32 0, null, i32 256, i1 false, null, null, i32 0, metadata !153, i32 1741} ; [ DW_TAG_subprogram ]
!547 = metadata !{i32 786478, i32 0, metadata !384, metadata !"length", metadata !"length", metadata !"_ZNVK11ap_int_baseILi64ELb1ELb1EE6lengthEv", metadata !141, i32 1742, metadata !548, i1 false, i1 false, i32 0, i32 0, null, i32 256, i1 false, null, null, i32 0, metadata !153, i32 1742} ; [ DW_TAG_subprogram ]
!548 = metadata !{i32 786453, i32 0, metadata !"", i32 0, i32 0, i64 0, i64 0, i64 0, i32 0, null, metadata !549, i32 0, i32 0} ; [ DW_TAG_subroutine_type ]
!549 = metadata !{metadata !162, metadata !550}
!550 = metadata !{i32 786447, i32 0, metadata !"", i32 0, i32 0, i64 64, i64 64, i64 0, i32 64, metadata !463} ; [ DW_TAG_pointer_type ]
!551 = metadata !{i32 786478, i32 0, metadata !384, metadata !"reverse", metadata !"reverse", metadata !"_ZN11ap_int_baseILi64ELb1ELb1EE7reverseEv", metadata !141, i32 1747, metadata !552, i1 false, i1 false, i32 0, i32 0, null, i32 256, i1 false, null, null, i32 0, metadata !153, i32 1747} ; [ DW_TAG_subprogram ]
!552 = metadata !{i32 786453, i32 0, metadata !"", i32 0, i32 0, i64 0, i64 0, i64 0, i32 0, null, metadata !553, i32 0, i32 0} ; [ DW_TAG_subroutine_type ]
!553 = metadata !{metadata !468, metadata !400}
!554 = metadata !{i32 786478, i32 0, metadata !384, metadata !"iszero", metadata !"iszero", metadata !"_ZNK11ap_int_baseILi64ELb1ELb1EE6iszeroEv", metadata !141, i32 1753, metadata !511, i1 false, i1 false, i32 0, i32 0, null, i32 256, i1 false, null, null, i32 0, metadata !153, i32 1753} ; [ DW_TAG_subprogram ]
!555 = metadata !{i32 786478, i32 0, metadata !384, metadata !"is_zero", metadata !"is_zero", metadata !"_ZNK11ap_int_baseILi64ELb1ELb1EE7is_zeroEv", metadata !141, i32 1758, metadata !511, i1 false, i1 false, i32 0, i32 0, null, i32 256, i1 false, null, null, i32 0, metadata !153, i32 1758} ; [ DW_TAG_subprogram ]
!556 = metadata !{i32 786478, i32 0, metadata !384, metadata !"sign", metadata !"sign", metadata !"_ZNK11ap_int_baseILi64ELb1ELb1EE4signEv", metadata !141, i32 1763, metadata !511, i1 false, i1 false, i32 0, i32 0, null, i32 256, i1 false, null, null, i32 0, metadata !153, i32 1763} ; [ DW_TAG_subprogram ]
!557 = metadata !{i32 786478, i32 0, metadata !384, metadata !"clear", metadata !"clear", metadata !"_ZN11ap_int_baseILi64ELb1ELb1EE5clearEi", metadata !141, i32 1771, metadata !417, i1 false, i1 false, i32 0, i32 0, null, i32 256, i1 false, null, null, i32 0, metadata !153, i32 1771} ; [ DW_TAG_subprogram ]
!558 = metadata !{i32 786478, i32 0, metadata !384, metadata !"invert", metadata !"invert", metadata !"_ZN11ap_int_baseILi64ELb1ELb1EE6invertEi", metadata !141, i32 1777, metadata !417, i1 false, i1 false, i32 0, i32 0, null, i32 256, i1 false, null, null, i32 0, metadata !153, i32 1777} ; [ DW_TAG_subprogram ]
!559 = metadata !{i32 786478, i32 0, metadata !384, metadata !"test", metadata !"test", metadata !"_ZNK11ap_int_baseILi64ELb1ELb1EE4testEi", metadata !141, i32 1785, metadata !560, i1 false, i1 false, i32 0, i32 0, null, i32 256, i1 false, null, null, i32 0, metadata !153, i32 1785} ; [ DW_TAG_subprogram ]
!560 = metadata !{i32 786453, i32 0, metadata !"", i32 0, i32 0, i64 0, i64 0, i64 0, i32 0, null, metadata !561, i32 0, i32 0} ; [ DW_TAG_subroutine_type ]
!561 = metadata !{metadata !164, metadata !509, metadata !162}
!562 = metadata !{i32 786478, i32 0, metadata !384, metadata !"set", metadata !"set", metadata !"_ZN11ap_int_baseILi64ELb1ELb1EE3setEi", metadata !141, i32 1791, metadata !417, i1 false, i1 false, i32 0, i32 0, null, i32 256, i1 false, null, null, i32 0, metadata !153, i32 1791} ; [ DW_TAG_subprogram ]
!563 = metadata !{i32 786478, i32 0, metadata !384, metadata !"set", metadata !"set", metadata !"_ZN11ap_int_baseILi64ELb1ELb1EE3setEib", metadata !141, i32 1797, metadata !564, i1 false, i1 false, i32 0, i32 0, null, i32 256, i1 false, null, null, i32 0, metadata !153, i32 1797} ; [ DW_TAG_subprogram ]
!564 = metadata !{i32 786453, i32 0, metadata !"", i32 0, i32 0, i64 0, i64 0, i64 0, i32 0, null, metadata !565, i32 0, i32 0} ; [ DW_TAG_subroutine_type ]
!565 = metadata !{null, metadata !400, metadata !162, metadata !164}
!566 = metadata !{i32 786478, i32 0, metadata !384, metadata !"lrotate", metadata !"lrotate", metadata !"_ZN11ap_int_baseILi64ELb1ELb1EE7lrotateEi", metadata !141, i32 1804, metadata !417, i1 false, i1 false, i32 0, i32 0, null, i32 256, i1 false, null, null, i32 0, metadata !153, i32 1804} ; [ DW_TAG_subprogram ]
!567 = metadata !{i32 786478, i32 0, metadata !384, metadata !"rrotate", metadata !"rrotate", metadata !"_ZN11ap_int_baseILi64ELb1ELb1EE7rrotateEi", metadata !141, i32 1813, metadata !417, i1 false, i1 false, i32 0, i32 0, null, i32 256, i1 false, null, null, i32 0, metadata !153, i32 1813} ; [ DW_TAG_subprogram ]
!568 = metadata !{i32 786478, i32 0, metadata !384, metadata !"set_bit", metadata !"set_bit", metadata !"_ZN11ap_int_baseILi64ELb1ELb1EE7set_bitEib", metadata !141, i32 1821, metadata !564, i1 false, i1 false, i32 0, i32 0, null, i32 256, i1 false, null, null, i32 0, metadata !153, i32 1821} ; [ DW_TAG_subprogram ]
!569 = metadata !{i32 786478, i32 0, metadata !384, metadata !"get_bit", metadata !"get_bit", metadata !"_ZNK11ap_int_baseILi64ELb1ELb1EE7get_bitEi", metadata !141, i32 1826, metadata !560, i1 false, i1 false, i32 0, i32 0, null, i32 256, i1 false, null, null, i32 0, metadata !153, i32 1826} ; [ DW_TAG_subprogram ]
!570 = metadata !{i32 786478, i32 0, metadata !384, metadata !"b_not", metadata !"b_not", metadata !"_ZN11ap_int_baseILi64ELb1ELb1EE5b_notEv", metadata !141, i32 1831, metadata !398, i1 false, i1 false, i32 0, i32 0, null, i32 256, i1 false, null, null, i32 0, metadata !153, i32 1831} ; [ DW_TAG_subprogram ]
!571 = metadata !{i32 786478, i32 0, metadata !384, metadata !"countLeadingZeros", metadata !"countLeadingZeros", metadata !"_ZN11ap_int_baseILi64ELb1ELb1EE17countLeadingZerosEv", metadata !141, i32 1838, metadata !572, i1 false, i1 false, i32 0, i32 0, null, i32 256, i1 false, null, null, i32 0, metadata !153, i32 1838} ; [ DW_TAG_subprogram ]
!572 = metadata !{i32 786453, i32 0, metadata !"", i32 0, i32 0, i64 0, i64 0, i64 0, i32 0, null, metadata !573, i32 0, i32 0} ; [ DW_TAG_subroutine_type ]
!573 = metadata !{metadata !162, metadata !400}
!574 = metadata !{i32 786478, i32 0, metadata !384, metadata !"operator++", metadata !"operator++", metadata !"_ZN11ap_int_baseILi64ELb1ELb1EEppEv", metadata !141, i32 1895, metadata !552, i1 false, i1 false, i32 0, i32 0, null, i32 256, i1 false, null, null, i32 0, metadata !153, i32 1895} ; [ DW_TAG_subprogram ]
!575 = metadata !{i32 786478, i32 0, metadata !384, metadata !"operator--", metadata !"operator--", metadata !"_ZN11ap_int_baseILi64ELb1ELb1EEmmEv", metadata !141, i32 1899, metadata !552, i1 false, i1 false, i32 0, i32 0, null, i32 256, i1 false, null, null, i32 0, metadata !153, i32 1899} ; [ DW_TAG_subprogram ]
!576 = metadata !{i32 786478, i32 0, metadata !384, metadata !"operator++", metadata !"operator++", metadata !"_ZN11ap_int_baseILi64ELb1ELb1EEppEi", metadata !141, i32 1907, metadata !577, i1 false, i1 false, i32 0, i32 0, null, i32 256, i1 false, null, null, i32 0, metadata !153, i32 1907} ; [ DW_TAG_subprogram ]
!577 = metadata !{i32 786453, i32 0, metadata !"", i32 0, i32 0, i64 0, i64 0, i64 0, i32 0, null, metadata !578, i32 0, i32 0} ; [ DW_TAG_subroutine_type ]
!578 = metadata !{metadata !458, metadata !400, metadata !162}
!579 = metadata !{i32 786478, i32 0, metadata !384, metadata !"operator--", metadata !"operator--", metadata !"_ZN11ap_int_baseILi64ELb1ELb1EEmmEi", metadata !141, i32 1912, metadata !577, i1 false, i1 false, i32 0, i32 0, null, i32 256, i1 false, null, null, i32 0, metadata !153, i32 1912} ; [ DW_TAG_subprogram ]
!580 = metadata !{i32 786478, i32 0, metadata !384, metadata !"operator+", metadata !"operator+", metadata !"_ZNK11ap_int_baseILi64ELb1ELb1EEpsEv", metadata !141, i32 1921, metadata !581, i1 false, i1 false, i32 0, i32 0, null, i32 256, i1 false, null, null, i32 0, metadata !153, i32 1921} ; [ DW_TAG_subprogram ]
!581 = metadata !{i32 786453, i32 0, metadata !"", i32 0, i32 0, i64 0, i64 0, i64 0, i32 0, null, metadata !582, i32 0, i32 0} ; [ DW_TAG_subroutine_type ]
!582 = metadata !{metadata !384, metadata !509}
!583 = metadata !{i32 786478, i32 0, metadata !384, metadata !"operator!", metadata !"operator!", metadata !"_ZNK11ap_int_baseILi64ELb1ELb1EEntEv", metadata !141, i32 1927, metadata !511, i1 false, i1 false, i32 0, i32 0, null, i32 256, i1 false, null, null, i32 0, metadata !153, i32 1927} ; [ DW_TAG_subprogram ]
!584 = metadata !{i32 786478, i32 0, metadata !384, metadata !"operator-", metadata !"operator-", metadata !"_ZNK11ap_int_baseILi64ELb1ELb1EEngEv", metadata !141, i32 1932, metadata !581, i1 false, i1 false, i32 0, i32 0, null, i32 256, i1 false, null, null, i32 0, metadata !153, i32 1932} ; [ DW_TAG_subprogram ]
!585 = metadata !{i32 786478, i32 0, metadata !384, metadata !"range", metadata !"range", metadata !"_ZN11ap_int_baseILi64ELb1ELb1EE5rangeEii", metadata !141, i32 2062, metadata !586, i1 false, i1 false, i32 0, i32 0, null, i32 256, i1 false, null, null, i32 0, metadata !153, i32 2062} ; [ DW_TAG_subprogram ]
!586 = metadata !{i32 786453, i32 0, metadata !"", i32 0, i32 0, i64 0, i64 0, i64 0, i32 0, null, metadata !587, i32 0, i32 0} ; [ DW_TAG_subroutine_type ]
!587 = metadata !{metadata !588, metadata !400, metadata !162, metadata !162}
!588 = metadata !{i32 786434, null, metadata !"ap_range_ref<64, true>", metadata !141, i32 925, i64 0, i64 0, i32 0, i32 4, null, null, i32 0, null, metadata !589} ; [ DW_TAG_class_type ]
!589 = metadata !{metadata !590, metadata !396}
!590 = metadata !{i32 786480, null, metadata !"_AP_W", metadata !162, i64 64, null, i32 0, i32 0} ; [ DW_TAG_template_value_parameter ]
!591 = metadata !{i32 786478, i32 0, metadata !384, metadata !"operator()", metadata !"operator()", metadata !"_ZN11ap_int_baseILi64ELb1ELb1EEclEii", metadata !141, i32 2068, metadata !586, i1 false, i1 false, i32 0, i32 0, null, i32 256, i1 false, null, null, i32 0, metadata !153, i32 2068} ; [ DW_TAG_subprogram ]
!592 = metadata !{i32 786478, i32 0, metadata !384, metadata !"range", metadata !"range", metadata !"_ZNK11ap_int_baseILi64ELb1ELb1EE5rangeEii", metadata !141, i32 2074, metadata !593, i1 false, i1 false, i32 0, i32 0, null, i32 256, i1 false, null, null, i32 0, metadata !153, i32 2074} ; [ DW_TAG_subprogram ]
!593 = metadata !{i32 786453, i32 0, metadata !"", i32 0, i32 0, i64 0, i64 0, i64 0, i32 0, null, metadata !594, i32 0, i32 0} ; [ DW_TAG_subroutine_type ]
!594 = metadata !{metadata !588, metadata !509, metadata !162, metadata !162}
!595 = metadata !{i32 786478, i32 0, metadata !384, metadata !"operator()", metadata !"operator()", metadata !"_ZNK11ap_int_baseILi64ELb1ELb1EEclEii", metadata !141, i32 2080, metadata !593, i1 false, i1 false, i32 0, i32 0, null, i32 256, i1 false, null, null, i32 0, metadata !153, i32 2080} ; [ DW_TAG_subprogram ]
!596 = metadata !{i32 786478, i32 0, metadata !384, metadata !"operator[]", metadata !"operator[]", metadata !"_ZN11ap_int_baseILi64ELb1ELb1EEixEi", metadata !141, i32 2099, metadata !597, i1 false, i1 false, i32 0, i32 0, null, i32 256, i1 false, null, null, i32 0, metadata !153, i32 2099} ; [ DW_TAG_subprogram ]
!597 = metadata !{i32 786453, i32 0, metadata !"", i32 0, i32 0, i64 0, i64 0, i64 0, i32 0, null, metadata !598, i32 0, i32 0} ; [ DW_TAG_subroutine_type ]
!598 = metadata !{metadata !599, metadata !400, metadata !162}
!599 = metadata !{i32 786434, null, metadata !"ap_bit_ref<64, true>", metadata !141, i32 1249, i64 0, i64 0, i32 0, i32 4, null, null, i32 0, null, metadata !589} ; [ DW_TAG_class_type ]
!600 = metadata !{i32 786478, i32 0, metadata !384, metadata !"operator[]", metadata !"operator[]", metadata !"_ZNK11ap_int_baseILi64ELb1ELb1EEixEi", metadata !141, i32 2113, metadata !560, i1 false, i1 false, i32 0, i32 0, null, i32 256, i1 false, null, null, i32 0, metadata !153, i32 2113} ; [ DW_TAG_subprogram ]
!601 = metadata !{i32 786478, i32 0, metadata !384, metadata !"bit", metadata !"bit", metadata !"_ZN11ap_int_baseILi64ELb1ELb1EE3bitEi", metadata !141, i32 2127, metadata !597, i1 false, i1 false, i32 0, i32 0, null, i32 256, i1 false, null, null, i32 0, metadata !153, i32 2127} ; [ DW_TAG_subprogram ]
!602 = metadata !{i32 786478, i32 0, metadata !384, metadata !"bit", metadata !"bit", metadata !"_ZNK11ap_int_baseILi64ELb1ELb1EE3bitEi", metadata !141, i32 2141, metadata !560, i1 false, i1 false, i32 0, i32 0, null, i32 256, i1 false, null, null, i32 0, metadata !153, i32 2141} ; [ DW_TAG_subprogram ]
!603 = metadata !{i32 786478, i32 0, metadata !384, metadata !"and_reduce", metadata !"and_reduce", metadata !"_ZN11ap_int_baseILi64ELb1ELb1EE10and_reduceEv", metadata !141, i32 2321, metadata !604, i1 false, i1 false, i32 0, i32 0, null, i32 256, i1 false, null, null, i32 0, metadata !153, i32 2321} ; [ DW_TAG_subprogram ]
!604 = metadata !{i32 786453, i32 0, metadata !"", i32 0, i32 0, i64 0, i64 0, i64 0, i32 0, null, metadata !605, i32 0, i32 0} ; [ DW_TAG_subroutine_type ]
!605 = metadata !{metadata !164, metadata !400}
!606 = metadata !{i32 786478, i32 0, metadata !384, metadata !"nand_reduce", metadata !"nand_reduce", metadata !"_ZN11ap_int_baseILi64ELb1ELb1EE11nand_reduceEv", metadata !141, i32 2324, metadata !604, i1 false, i1 false, i32 0, i32 0, null, i32 256, i1 false, null, null, i32 0, metadata !153, i32 2324} ; [ DW_TAG_subprogram ]
!607 = metadata !{i32 786478, i32 0, metadata !384, metadata !"or_reduce", metadata !"or_reduce", metadata !"_ZN11ap_int_baseILi64ELb1ELb1EE9or_reduceEv", metadata !141, i32 2327, metadata !604, i1 false, i1 false, i32 0, i32 0, null, i32 256, i1 false, null, null, i32 0, metadata !153, i32 2327} ; [ DW_TAG_subprogram ]
!608 = metadata !{i32 786478, i32 0, metadata !384, metadata !"nor_reduce", metadata !"nor_reduce", metadata !"_ZN11ap_int_baseILi64ELb1ELb1EE10nor_reduceEv", metadata !141, i32 2330, metadata !604, i1 false, i1 false, i32 0, i32 0, null, i32 256, i1 false, null, null, i32 0, metadata !153, i32 2330} ; [ DW_TAG_subprogram ]
!609 = metadata !{i32 786478, i32 0, metadata !384, metadata !"xor_reduce", metadata !"xor_reduce", metadata !"_ZN11ap_int_baseILi64ELb1ELb1EE10xor_reduceEv", metadata !141, i32 2333, metadata !604, i1 false, i1 false, i32 0, i32 0, null, i32 256, i1 false, null, null, i32 0, metadata !153, i32 2333} ; [ DW_TAG_subprogram ]
!610 = metadata !{i32 786478, i32 0, metadata !384, metadata !"xnor_reduce", metadata !"xnor_reduce", metadata !"_ZN11ap_int_baseILi64ELb1ELb1EE11xnor_reduceEv", metadata !141, i32 2336, metadata !604, i1 false, i1 false, i32 0, i32 0, null, i32 256, i1 false, null, null, i32 0, metadata !153, i32 2336} ; [ DW_TAG_subprogram ]
!611 = metadata !{i32 786478, i32 0, metadata !384, metadata !"and_reduce", metadata !"and_reduce", metadata !"_ZNK11ap_int_baseILi64ELb1ELb1EE10and_reduceEv", metadata !141, i32 2340, metadata !511, i1 false, i1 false, i32 0, i32 0, null, i32 256, i1 false, null, null, i32 0, metadata !153, i32 2340} ; [ DW_TAG_subprogram ]
!612 = metadata !{i32 786478, i32 0, metadata !384, metadata !"nand_reduce", metadata !"nand_reduce", metadata !"_ZNK11ap_int_baseILi64ELb1ELb1EE11nand_reduceEv", metadata !141, i32 2343, metadata !511, i1 false, i1 false, i32 0, i32 0, null, i32 256, i1 false, null, null, i32 0, metadata !153, i32 2343} ; [ DW_TAG_subprogram ]
!613 = metadata !{i32 786478, i32 0, metadata !384, metadata !"or_reduce", metadata !"or_reduce", metadata !"_ZNK11ap_int_baseILi64ELb1ELb1EE9or_reduceEv", metadata !141, i32 2346, metadata !511, i1 false, i1 false, i32 0, i32 0, null, i32 256, i1 false, null, null, i32 0, metadata !153, i32 2346} ; [ DW_TAG_subprogram ]
!614 = metadata !{i32 786478, i32 0, metadata !384, metadata !"nor_reduce", metadata !"nor_reduce", metadata !"_ZNK11ap_int_baseILi64ELb1ELb1EE10nor_reduceEv", metadata !141, i32 2349, metadata !511, i1 false, i1 false, i32 0, i32 0, null, i32 256, i1 false, null, null, i32 0, metadata !153, i32 2349} ; [ DW_TAG_subprogram ]
!615 = metadata !{i32 786478, i32 0, metadata !384, metadata !"xor_reduce", metadata !"xor_reduce", metadata !"_ZNK11ap_int_baseILi64ELb1ELb1EE10xor_reduceEv", metadata !141, i32 2352, metadata !511, i1 false, i1 false, i32 0, i32 0, null, i32 256, i1 false, null, null, i32 0, metadata !153, i32 2352} ; [ DW_TAG_subprogram ]
!616 = metadata !{i32 786478, i32 0, metadata !384, metadata !"xnor_reduce", metadata !"xnor_reduce", metadata !"_ZNK11ap_int_baseILi64ELb1ELb1EE11xnor_reduceEv", metadata !141, i32 2355, metadata !511, i1 false, i1 false, i32 0, i32 0, null, i32 256, i1 false, null, null, i32 0, metadata !153, i32 2355} ; [ DW_TAG_subprogram ]
!617 = metadata !{i32 786478, i32 0, metadata !384, metadata !"to_string", metadata !"to_string", metadata !"_ZNK11ap_int_baseILi64ELb1ELb1EE9to_stringEPci8BaseModeb", metadata !141, i32 2362, metadata !618, i1 false, i1 false, i32 0, i32 0, null, i32 256, i1 false, null, null, i32 0, metadata !153, i32 2362} ; [ DW_TAG_subprogram ]
!618 = metadata !{i32 786453, i32 0, metadata !"", i32 0, i32 0, i64 0, i64 0, i64 0, i32 0, null, metadata !619, i32 0, i32 0} ; [ DW_TAG_subroutine_type ]
!619 = metadata !{null, metadata !509, metadata !620, metadata !162, metadata !621, metadata !164}
!620 = metadata !{i32 786447, null, metadata !"", null, i32 0, i64 64, i64 64, i64 0, i32 0, metadata !245} ; [ DW_TAG_pointer_type ]
!621 = metadata !{i32 786436, null, metadata !"BaseMode", metadata !141, i32 603, i64 5, i64 8, i32 0, i32 0, null, metadata !622, i32 0, i32 0} ; [ DW_TAG_enumeration_type ]
!622 = metadata !{metadata !623, metadata !624, metadata !625, metadata !626}
!623 = metadata !{i32 786472, metadata !"SC_BIN", i64 2} ; [ DW_TAG_enumerator ]
!624 = metadata !{i32 786472, metadata !"SC_OCT", i64 8} ; [ DW_TAG_enumerator ]
!625 = metadata !{i32 786472, metadata !"SC_DEC", i64 10} ; [ DW_TAG_enumerator ]
!626 = metadata !{i32 786472, metadata !"SC_HEX", i64 16} ; [ DW_TAG_enumerator ]
!627 = metadata !{i32 786478, i32 0, metadata !384, metadata !"to_string", metadata !"to_string", metadata !"_ZNK11ap_int_baseILi64ELb1ELb1EE9to_stringE8BaseModeb", metadata !141, i32 2389, metadata !628, i1 false, i1 false, i32 0, i32 0, null, i32 256, i1 false, null, null, i32 0, metadata !153, i32 2389} ; [ DW_TAG_subprogram ]
!628 = metadata !{i32 786453, i32 0, metadata !"", i32 0, i32 0, i64 0, i64 0, i64 0, i32 0, null, metadata !629, i32 0, i32 0} ; [ DW_TAG_subroutine_type ]
!629 = metadata !{metadata !620, metadata !509, metadata !621, metadata !164}
!630 = metadata !{i32 786478, i32 0, metadata !384, metadata !"to_string", metadata !"to_string", metadata !"_ZNK11ap_int_baseILi64ELb1ELb1EE9to_stringEab", metadata !141, i32 2393, metadata !631, i1 false, i1 false, i32 0, i32 0, null, i32 256, i1 false, null, null, i32 0, metadata !153, i32 2393} ; [ DW_TAG_subprogram ]
!631 = metadata !{i32 786453, i32 0, metadata !"", i32 0, i32 0, i64 0, i64 0, i64 0, i32 0, null, metadata !632, i32 0, i32 0} ; [ DW_TAG_subroutine_type ]
!632 = metadata !{metadata !620, metadata !509, metadata !189, metadata !164}
!633 = metadata !{metadata !590, metadata !396, metadata !634}
!634 = metadata !{i32 786480, null, metadata !"_AP_C", metadata !164, i64 1, null, i32 0, i32 0} ; [ DW_TAG_template_value_parameter ]
!635 = metadata !{i32 786478, i32 0, metadata !140, metadata !"range", metadata !"range", metadata !"_ZN11ap_int_baseILi64ELb0ELb1EE5rangeEii", metadata !141, i32 2062, metadata !636, i1 false, i1 false, i32 0, i32 0, null, i32 256, i1 false, null, null, i32 0, metadata !153, i32 2062} ; [ DW_TAG_subprogram ]
!636 = metadata !{i32 786453, i32 0, metadata !"", i32 0, i32 0, i64 0, i64 0, i64 0, i32 0, null, metadata !637, i32 0, i32 0} ; [ DW_TAG_subroutine_type ]
!637 = metadata !{metadata !638, metadata !168, metadata !162, metadata !162}
!638 = metadata !{i32 786434, null, metadata !"ap_range_ref<64, false>", metadata !141, i32 925, i64 128, i64 64, i32 0, i32 0, null, metadata !639, i32 0, null, metadata !2681} ; [ DW_TAG_class_type ]
!639 = metadata !{metadata !640, metadata !641, metadata !642, metadata !643, metadata !649, metadata !653, metadata !657, metadata !660, metadata !664, metadata !667, metadata !2648, metadata !2654, metadata !2657, metadata !2658, metadata !2661, metadata !2664, metadata !2667, metadata !2670, metadata !2673, metadata !2676, metadata !2677, metadata !2678}
!640 = metadata !{i32 786445, metadata !638, metadata !"d_bv", metadata !141, i32 926, i64 64, i64 64, i64 0, i32 0, metadata !263} ; [ DW_TAG_member ]
!641 = metadata !{i32 786445, metadata !638, metadata !"l_index", metadata !141, i32 927, i64 32, i64 32, i64 64, i32 0, metadata !162} ; [ DW_TAG_member ]
!642 = metadata !{i32 786445, metadata !638, metadata !"h_index", metadata !141, i32 928, i64 32, i64 32, i64 96, i32 0, metadata !162} ; [ DW_TAG_member ]
!643 = metadata !{i32 786478, i32 0, metadata !638, metadata !"ap_range_ref", metadata !"ap_range_ref", metadata !"", metadata !141, i32 931, metadata !644, i1 false, i1 false, i32 0, i32 0, null, i32 256, i1 false, null, null, i32 0, metadata !153, i32 931} ; [ DW_TAG_subprogram ]
!644 = metadata !{i32 786453, i32 0, metadata !"", i32 0, i32 0, i64 0, i64 0, i64 0, i32 0, null, metadata !645, i32 0, i32 0} ; [ DW_TAG_subroutine_type ]
!645 = metadata !{null, metadata !646, metadata !647}
!646 = metadata !{i32 786447, i32 0, metadata !"", i32 0, i32 0, i64 64, i64 64, i64 0, i32 64, metadata !638} ; [ DW_TAG_pointer_type ]
!647 = metadata !{i32 786448, null, null, null, i32 0, i64 0, i64 0, i64 0, i32 0, metadata !648} ; [ DW_TAG_reference_type ]
!648 = metadata !{i32 786470, null, metadata !"", null, i32 0, i64 0, i64 0, i64 0, i32 0, metadata !638} ; [ DW_TAG_const_type ]
!649 = metadata !{i32 786478, i32 0, metadata !638, metadata !"ap_range_ref", metadata !"ap_range_ref", metadata !"", metadata !141, i32 934, metadata !650, i1 false, i1 false, i32 0, i32 0, null, i32 256, i1 false, null, null, i32 0, metadata !153, i32 934} ; [ DW_TAG_subprogram ]
!650 = metadata !{i32 786453, i32 0, metadata !"", i32 0, i32 0, i64 0, i64 0, i64 0, i32 0, null, metadata !651, i32 0, i32 0} ; [ DW_TAG_subroutine_type ]
!651 = metadata !{null, metadata !646, metadata !652, metadata !162, metadata !162}
!652 = metadata !{i32 786447, null, metadata !"", null, i32 0, i64 64, i64 64, i64 0, i32 0, metadata !140} ; [ DW_TAG_pointer_type ]
!653 = metadata !{i32 786478, i32 0, metadata !638, metadata !"operator ap_int_base", metadata !"operator ap_int_base", metadata !"_ZNK12ap_range_refILi64ELb0EEcv11ap_int_baseILi64ELb0ELb1EEEv", metadata !141, i32 939, metadata !654, i1 false, i1 false, i32 0, i32 0, null, i32 256, i1 false, null, null, i32 0, metadata !153, i32 939} ; [ DW_TAG_subprogram ]
!654 = metadata !{i32 786453, i32 0, metadata !"", i32 0, i32 0, i64 0, i64 0, i64 0, i32 0, null, metadata !655, i32 0, i32 0} ; [ DW_TAG_subroutine_type ]
!655 = metadata !{metadata !140, metadata !656}
!656 = metadata !{i32 786447, i32 0, metadata !"", i32 0, i32 0, i64 64, i64 64, i64 0, i32 64, metadata !648} ; [ DW_TAG_pointer_type ]
!657 = metadata !{i32 786478, i32 0, metadata !638, metadata !"operator unsigned long long", metadata !"operator unsigned long long", metadata !"_ZNK12ap_range_refILi64ELb0EEcvyEv", metadata !141, i32 945, metadata !658, i1 false, i1 false, i32 0, i32 0, null, i32 256, i1 false, null, null, i32 0, metadata !153, i32 945} ; [ DW_TAG_subprogram ]
!658 = metadata !{i32 786453, i32 0, metadata !"", i32 0, i32 0, i64 0, i64 0, i64 0, i32 0, null, metadata !659, i32 0, i32 0} ; [ DW_TAG_subroutine_type ]
!659 = metadata !{metadata !226, metadata !656}
!660 = metadata !{i32 786478, i32 0, metadata !638, metadata !"operator=", metadata !"operator=", metadata !"_ZN12ap_range_refILi64ELb0EEaSEy", metadata !141, i32 949, metadata !661, i1 false, i1 false, i32 0, i32 0, null, i32 256, i1 false, null, null, i32 0, metadata !153, i32 949} ; [ DW_TAG_subprogram ]
!661 = metadata !{i32 786453, i32 0, metadata !"", i32 0, i32 0, i64 0, i64 0, i64 0, i32 0, null, metadata !662, i32 0, i32 0} ; [ DW_TAG_subroutine_type ]
!662 = metadata !{metadata !663, metadata !646, metadata !226}
!663 = metadata !{i32 786448, null, null, null, i32 0, i64 0, i64 0, i64 0, i32 0, metadata !638} ; [ DW_TAG_reference_type ]
!664 = metadata !{i32 786478, i32 0, metadata !638, metadata !"operator=", metadata !"operator=", metadata !"_ZN12ap_range_refILi64ELb0EEaSERKS0_", metadata !141, i32 967, metadata !665, i1 false, i1 false, i32 0, i32 0, null, i32 256, i1 false, null, null, i32 0, metadata !153, i32 967} ; [ DW_TAG_subprogram ]
!665 = metadata !{i32 786453, i32 0, metadata !"", i32 0, i32 0, i64 0, i64 0, i64 0, i32 0, null, metadata !666, i32 0, i32 0} ; [ DW_TAG_subroutine_type ]
!666 = metadata !{metadata !663, metadata !646, metadata !647}
!667 = metadata !{i32 786478, i32 0, metadata !638, metadata !"operator,<64, false>", metadata !"operator,<64, false>", metadata !"_ZN12ap_range_refILi64ELb0EEcmILi64ELb0EEE13ap_concat_refILi64ES0_XT_ES_IXT_EXT0_EEERKS3_", metadata !141, i32 1005, metadata !668, i1 false, i1 false, i32 0, i32 0, null, i32 256, i1 false, null, metadata !174, i32 0, metadata !153, i32 1005} ; [ DW_TAG_subprogram ]
!668 = metadata !{i32 786453, i32 0, metadata !"", i32 0, i32 0, i64 0, i64 0, i64 0, i32 0, null, metadata !669, i32 0, i32 0} ; [ DW_TAG_subroutine_type ]
!669 = metadata !{metadata !670, metadata !646, metadata !647}
!670 = metadata !{i32 786434, null, metadata !"ap_concat_ref<64, ap_range_ref<64, false>, 64, ap_range_ref<64, false> >", metadata !141, i32 688, i64 128, i64 64, i32 0, i32 0, null, metadata !671, i32 0, null, metadata !2645} ; [ DW_TAG_class_type ]
!671 = metadata !{metadata !672, metadata !673, metadata !674, metadata !680, metadata !683, metadata !687, metadata !690, metadata !939, metadata !942, metadata !2638, metadata !2639, metadata !2642}
!672 = metadata !{i32 786445, metadata !670, metadata !"mbv1", metadata !141, i32 691, i64 64, i64 64, i64 0, i32 0, metadata !663} ; [ DW_TAG_member ]
!673 = metadata !{i32 786445, metadata !670, metadata !"mbv2", metadata !141, i32 692, i64 64, i64 64, i64 64, i32 0, metadata !663} ; [ DW_TAG_member ]
!674 = metadata !{i32 786478, i32 0, metadata !670, metadata !"ap_concat_ref", metadata !"ap_concat_ref", metadata !"", metadata !141, i32 694, metadata !675, i1 false, i1 false, i32 0, i32 0, null, i32 256, i1 false, null, null, i32 0, metadata !153, i32 694} ; [ DW_TAG_subprogram ]
!675 = metadata !{i32 786453, i32 0, metadata !"", i32 0, i32 0, i64 0, i64 0, i64 0, i32 0, null, metadata !676, i32 0, i32 0} ; [ DW_TAG_subroutine_type ]
!676 = metadata !{null, metadata !677, metadata !678}
!677 = metadata !{i32 786447, i32 0, metadata !"", i32 0, i32 0, i64 64, i64 64, i64 0, i32 64, metadata !670} ; [ DW_TAG_pointer_type ]
!678 = metadata !{i32 786448, null, null, null, i32 0, i64 0, i64 0, i64 0, i32 0, metadata !679} ; [ DW_TAG_reference_type ]
!679 = metadata !{i32 786470, null, metadata !"", null, i32 0, i64 0, i64 0, i64 0, i32 0, metadata !670} ; [ DW_TAG_const_type ]
!680 = metadata !{i32 786478, i32 0, metadata !670, metadata !"ap_concat_ref", metadata !"ap_concat_ref", metadata !"", metadata !141, i32 698, metadata !681, i1 false, i1 false, i32 0, i32 0, null, i32 256, i1 false, null, null, i32 0, metadata !153, i32 698} ; [ DW_TAG_subprogram ]
!681 = metadata !{i32 786453, i32 0, metadata !"", i32 0, i32 0, i64 0, i64 0, i64 0, i32 0, null, metadata !682, i32 0, i32 0} ; [ DW_TAG_subroutine_type ]
!682 = metadata !{null, metadata !677, metadata !663, metadata !663}
!683 = metadata !{i32 786478, i32 0, metadata !670, metadata !"operator=", metadata !"operator=", metadata !"_ZN13ap_concat_refILi64E12ap_range_refILi64ELb0EELi64ES1_EaSEy", metadata !141, i32 715, metadata !684, i1 false, i1 false, i32 0, i32 0, null, i32 256, i1 false, null, null, i32 0, metadata !153, i32 715} ; [ DW_TAG_subprogram ]
!684 = metadata !{i32 786453, i32 0, metadata !"", i32 0, i32 0, i64 0, i64 0, i64 0, i32 0, null, metadata !685, i32 0, i32 0} ; [ DW_TAG_subroutine_type ]
!685 = metadata !{metadata !686, metadata !677, metadata !226}
!686 = metadata !{i32 786448, null, null, null, i32 0, i64 0, i64 0, i64 0, i32 0, metadata !670} ; [ DW_TAG_reference_type ]
!687 = metadata !{i32 786478, i32 0, metadata !670, metadata !"operator=", metadata !"operator=", metadata !"_ZN13ap_concat_refILi64E12ap_range_refILi64ELb0EELi64ES1_EaSERKS2_", metadata !141, i32 731, metadata !688, i1 false, i1 false, i32 0, i32 0, null, i32 256, i1 false, null, null, i32 0, metadata !153, i32 731} ; [ DW_TAG_subprogram ]
!688 = metadata !{i32 786453, i32 0, metadata !"", i32 0, i32 0, i64 0, i64 0, i64 0, i32 0, null, metadata !689, i32 0, i32 0} ; [ DW_TAG_subroutine_type ]
!689 = metadata !{metadata !686, metadata !677, metadata !678}
!690 = metadata !{i32 786478, i32 0, metadata !670, metadata !"operator ap_int_base", metadata !"operator ap_int_base", metadata !"_ZNK13ap_concat_refILi64E12ap_range_refILi64ELb0EELi64ES1_Ecv11ap_int_baseILi128ELb0ELb0EEEv", metadata !141, i32 766, metadata !691, i1 false, i1 false, i32 0, i32 0, null, i32 256, i1 false, null, null, i32 0, metadata !153, i32 766} ; [ DW_TAG_subprogram ]
!691 = metadata !{i32 786453, i32 0, metadata !"", i32 0, i32 0, i64 0, i64 0, i64 0, i32 0, null, metadata !692, i32 0, i32 0} ; [ DW_TAG_subroutine_type ]
!692 = metadata !{metadata !693, metadata !938}
!693 = metadata !{i32 786434, null, metadata !"ap_int_base<128, false, false>", metadata !141, i32 2398, i64 128, i64 128, i32 0, i32 0, null, metadata !694, i32 0, null, metadata !937} ; [ DW_TAG_class_type ]
!694 = metadata !{metadata !695, metadata !706, metadata !710, metadata !713, metadata !716, metadata !719, metadata !722, metadata !725, metadata !728, metadata !731, metadata !734, metadata !737, metadata !740, metadata !743, metadata !746, metadata !749, metadata !752, metadata !755, metadata !758, metadata !763, metadata !768, metadata !773, metadata !774, metadata !778, metadata !781, metadata !784, metadata !787, metadata !790, metadata !793, metadata !796, metadata !799, metadata !802, metadata !805, metadata !808, metadata !811, metadata !816, metadata !819, metadata !820, metadata !821, metadata !822, metadata !823, metadata !826, metadata !829, metadata !832, metadata !835, metadata !838, metadata !841, metadata !844, metadata !845, metadata !849, metadata !852, metadata !853, metadata !854, metadata !855, metadata !856, metadata !857, metadata !860, metadata !861, metadata !864, metadata !865, metadata !866, metadata !867, metadata !868, metadata !869, metadata !872, metadata !873, metadata !874, metadata !877, metadata !878, metadata !881, metadata !892, metadata !893, metadata !896, metadata !902, metadata !903, metadata !906, metadata !907, metadata !911, metadata !912, metadata !913, metadata !914, metadata !917, metadata !918, metadata !919, metadata !920, metadata !921, metadata !922, metadata !923, metadata !924, metadata !925, metadata !926, metadata !927, metadata !928, metadata !931, metadata !934}
!695 = metadata !{i32 786460, metadata !693, null, metadata !141, i32 0, i64 0, i64 0, i64 0, i32 0, metadata !696} ; [ DW_TAG_inheritance ]
!696 = metadata !{i32 786434, null, metadata !"ssdm_int<128 + 1024 * 0, false>", metadata !145, i32 136, i64 128, i64 128, i32 0, i32 0, null, metadata !697, i32 0, null, metadata !704} ; [ DW_TAG_class_type ]
!697 = metadata !{metadata !698, metadata !700}
!698 = metadata !{i32 786445, metadata !696, metadata !"V", metadata !145, i32 136, i64 128, i64 128, i64 0, i32 0, metadata !699} ; [ DW_TAG_member ]
!699 = metadata !{i32 786468, null, metadata !"uint128", null, i32 0, i64 128, i64 128, i64 0, i32 0, i32 7} ; [ DW_TAG_base_type ]
!700 = metadata !{i32 786478, i32 0, metadata !696, metadata !"ssdm_int", metadata !"ssdm_int", metadata !"", metadata !145, i32 136, metadata !701, i1 false, i1 false, i32 0, i32 0, null, i32 256, i1 false, null, null, i32 0, metadata !153, i32 136} ; [ DW_TAG_subprogram ]
!701 = metadata !{i32 786453, i32 0, metadata !"", i32 0, i32 0, i64 0, i64 0, i64 0, i32 0, null, metadata !702, i32 0, i32 0} ; [ DW_TAG_subroutine_type ]
!702 = metadata !{null, metadata !703}
!703 = metadata !{i32 786447, i32 0, metadata !"", i32 0, i32 0, i64 64, i64 64, i64 0, i32 64, metadata !696} ; [ DW_TAG_pointer_type ]
!704 = metadata !{metadata !705, metadata !163}
!705 = metadata !{i32 786480, null, metadata !"_AP_N", metadata !162, i64 128, null, i32 0, i32 0} ; [ DW_TAG_template_value_parameter ]
!706 = metadata !{i32 786478, i32 0, metadata !693, metadata !"ap_int_base", metadata !"ap_int_base", metadata !"", metadata !141, i32 2436, metadata !707, i1 false, i1 false, i32 0, i32 0, null, i32 256, i1 false, null, null, i32 0, metadata !153, i32 2436} ; [ DW_TAG_subprogram ]
!707 = metadata !{i32 786453, i32 0, metadata !"", i32 0, i32 0, i64 0, i64 0, i64 0, i32 0, null, metadata !708, i32 0, i32 0} ; [ DW_TAG_subroutine_type ]
!708 = metadata !{null, metadata !709}
!709 = metadata !{i32 786447, i32 0, metadata !"", i32 0, i32 0, i64 64, i64 64, i64 0, i32 64, metadata !693} ; [ DW_TAG_pointer_type ]
!710 = metadata !{i32 786478, i32 0, metadata !693, metadata !"ap_int_base", metadata !"ap_int_base", metadata !"", metadata !141, i32 2458, metadata !711, i1 false, i1 false, i32 0, i32 0, null, i32 384, i1 false, null, null, i32 0, metadata !153, i32 2458} ; [ DW_TAG_subprogram ]
!711 = metadata !{i32 786453, i32 0, metadata !"", i32 0, i32 0, i64 0, i64 0, i64 0, i32 0, null, metadata !712, i32 0, i32 0} ; [ DW_TAG_subroutine_type ]
!712 = metadata !{null, metadata !709, metadata !164}
!713 = metadata !{i32 786478, i32 0, metadata !693, metadata !"ap_int_base", metadata !"ap_int_base", metadata !"", metadata !141, i32 2459, metadata !714, i1 false, i1 false, i32 0, i32 0, null, i32 384, i1 false, null, null, i32 0, metadata !153, i32 2459} ; [ DW_TAG_subprogram ]
!714 = metadata !{i32 786453, i32 0, metadata !"", i32 0, i32 0, i64 0, i64 0, i64 0, i32 0, null, metadata !715, i32 0, i32 0} ; [ DW_TAG_subroutine_type ]
!715 = metadata !{null, metadata !709, metadata !189}
!716 = metadata !{i32 786478, i32 0, metadata !693, metadata !"ap_int_base", metadata !"ap_int_base", metadata !"", metadata !141, i32 2460, metadata !717, i1 false, i1 false, i32 0, i32 0, null, i32 384, i1 false, null, null, i32 0, metadata !153, i32 2460} ; [ DW_TAG_subprogram ]
!717 = metadata !{i32 786453, i32 0, metadata !"", i32 0, i32 0, i64 0, i64 0, i64 0, i32 0, null, metadata !718, i32 0, i32 0} ; [ DW_TAG_subroutine_type ]
!718 = metadata !{null, metadata !709, metadata !193}
!719 = metadata !{i32 786478, i32 0, metadata !693, metadata !"ap_int_base", metadata !"ap_int_base", metadata !"", metadata !141, i32 2461, metadata !720, i1 false, i1 false, i32 0, i32 0, null, i32 384, i1 false, null, null, i32 0, metadata !153, i32 2461} ; [ DW_TAG_subprogram ]
!720 = metadata !{i32 786453, i32 0, metadata !"", i32 0, i32 0, i64 0, i64 0, i64 0, i32 0, null, metadata !721, i32 0, i32 0} ; [ DW_TAG_subroutine_type ]
!721 = metadata !{null, metadata !709, metadata !197}
!722 = metadata !{i32 786478, i32 0, metadata !693, metadata !"ap_int_base", metadata !"ap_int_base", metadata !"", metadata !141, i32 2462, metadata !723, i1 false, i1 false, i32 0, i32 0, null, i32 384, i1 false, null, null, i32 0, metadata !153, i32 2462} ; [ DW_TAG_subprogram ]
!723 = metadata !{i32 786453, i32 0, metadata !"", i32 0, i32 0, i64 0, i64 0, i64 0, i32 0, null, metadata !724, i32 0, i32 0} ; [ DW_TAG_subroutine_type ]
!724 = metadata !{null, metadata !709, metadata !201}
!725 = metadata !{i32 786478, i32 0, metadata !693, metadata !"ap_int_base", metadata !"ap_int_base", metadata !"", metadata !141, i32 2463, metadata !726, i1 false, i1 false, i32 0, i32 0, null, i32 384, i1 false, null, null, i32 0, metadata !153, i32 2463} ; [ DW_TAG_subprogram ]
!726 = metadata !{i32 786453, i32 0, metadata !"", i32 0, i32 0, i64 0, i64 0, i64 0, i32 0, null, metadata !727, i32 0, i32 0} ; [ DW_TAG_subroutine_type ]
!727 = metadata !{null, metadata !709, metadata !162}
!728 = metadata !{i32 786478, i32 0, metadata !693, metadata !"ap_int_base", metadata !"ap_int_base", metadata !"", metadata !141, i32 2464, metadata !729, i1 false, i1 false, i32 0, i32 0, null, i32 384, i1 false, null, null, i32 0, metadata !153, i32 2464} ; [ DW_TAG_subprogram ]
!729 = metadata !{i32 786453, i32 0, metadata !"", i32 0, i32 0, i64 0, i64 0, i64 0, i32 0, null, metadata !730, i32 0, i32 0} ; [ DW_TAG_subroutine_type ]
!730 = metadata !{null, metadata !709, metadata !208}
!731 = metadata !{i32 786478, i32 0, metadata !693, metadata !"ap_int_base", metadata !"ap_int_base", metadata !"", metadata !141, i32 2465, metadata !732, i1 false, i1 false, i32 0, i32 0, null, i32 384, i1 false, null, null, i32 0, metadata !153, i32 2465} ; [ DW_TAG_subprogram ]
!732 = metadata !{i32 786453, i32 0, metadata !"", i32 0, i32 0, i64 0, i64 0, i64 0, i32 0, null, metadata !733, i32 0, i32 0} ; [ DW_TAG_subroutine_type ]
!733 = metadata !{null, metadata !709, metadata !212}
!734 = metadata !{i32 786478, i32 0, metadata !693, metadata !"ap_int_base", metadata !"ap_int_base", metadata !"", metadata !141, i32 2466, metadata !735, i1 false, i1 false, i32 0, i32 0, null, i32 384, i1 false, null, null, i32 0, metadata !153, i32 2466} ; [ DW_TAG_subprogram ]
!735 = metadata !{i32 786453, i32 0, metadata !"", i32 0, i32 0, i64 0, i64 0, i64 0, i32 0, null, metadata !736, i32 0, i32 0} ; [ DW_TAG_subroutine_type ]
!736 = metadata !{null, metadata !709, metadata !216}
!737 = metadata !{i32 786478, i32 0, metadata !693, metadata !"ap_int_base", metadata !"ap_int_base", metadata !"", metadata !141, i32 2467, metadata !738, i1 false, i1 false, i32 0, i32 0, null, i32 384, i1 false, null, null, i32 0, metadata !153, i32 2467} ; [ DW_TAG_subprogram ]
!738 = metadata !{i32 786453, i32 0, metadata !"", i32 0, i32 0, i64 0, i64 0, i64 0, i32 0, null, metadata !739, i32 0, i32 0} ; [ DW_TAG_subroutine_type ]
!739 = metadata !{null, metadata !709, metadata !220}
!740 = metadata !{i32 786478, i32 0, metadata !693, metadata !"ap_int_base", metadata !"ap_int_base", metadata !"", metadata !141, i32 2468, metadata !741, i1 false, i1 false, i32 0, i32 0, null, i32 384, i1 false, null, null, i32 0, metadata !153, i32 2468} ; [ DW_TAG_subprogram ]
!741 = metadata !{i32 786453, i32 0, metadata !"", i32 0, i32 0, i64 0, i64 0, i64 0, i32 0, null, metadata !742, i32 0, i32 0} ; [ DW_TAG_subroutine_type ]
!742 = metadata !{null, metadata !709, metadata !225}
!743 = metadata !{i32 786478, i32 0, metadata !693, metadata !"ap_int_base", metadata !"ap_int_base", metadata !"", metadata !141, i32 2469, metadata !744, i1 false, i1 false, i32 0, i32 0, null, i32 384, i1 false, null, null, i32 0, metadata !153, i32 2469} ; [ DW_TAG_subprogram ]
!744 = metadata !{i32 786453, i32 0, metadata !"", i32 0, i32 0, i64 0, i64 0, i64 0, i32 0, null, metadata !745, i32 0, i32 0} ; [ DW_TAG_subroutine_type ]
!745 = metadata !{null, metadata !709, metadata !230}
!746 = metadata !{i32 786478, i32 0, metadata !693, metadata !"ap_int_base", metadata !"ap_int_base", metadata !"", metadata !141, i32 2470, metadata !747, i1 false, i1 false, i32 0, i32 0, null, i32 384, i1 false, null, null, i32 0, metadata !153, i32 2470} ; [ DW_TAG_subprogram ]
!747 = metadata !{i32 786453, i32 0, metadata !"", i32 0, i32 0, i64 0, i64 0, i64 0, i32 0, null, metadata !748, i32 0, i32 0} ; [ DW_TAG_subroutine_type ]
!748 = metadata !{null, metadata !709, metadata !235}
!749 = metadata !{i32 786478, i32 0, metadata !693, metadata !"ap_int_base", metadata !"ap_int_base", metadata !"", metadata !141, i32 2471, metadata !750, i1 false, i1 false, i32 0, i32 0, null, i32 384, i1 false, null, null, i32 0, metadata !153, i32 2471} ; [ DW_TAG_subprogram ]
!750 = metadata !{i32 786453, i32 0, metadata !"", i32 0, i32 0, i64 0, i64 0, i64 0, i32 0, null, metadata !751, i32 0, i32 0} ; [ DW_TAG_subroutine_type ]
!751 = metadata !{null, metadata !709, metadata !239}
!752 = metadata !{i32 786478, i32 0, metadata !693, metadata !"ap_int_base", metadata !"ap_int_base", metadata !"", metadata !141, i32 2498, metadata !753, i1 false, i1 false, i32 0, i32 0, null, i32 256, i1 false, null, null, i32 0, metadata !153, i32 2498} ; [ DW_TAG_subprogram ]
!753 = metadata !{i32 786453, i32 0, metadata !"", i32 0, i32 0, i64 0, i64 0, i64 0, i32 0, null, metadata !754, i32 0, i32 0} ; [ DW_TAG_subroutine_type ]
!754 = metadata !{null, metadata !709, metadata !243}
!755 = metadata !{i32 786478, i32 0, metadata !693, metadata !"ap_int_base", metadata !"ap_int_base", metadata !"", metadata !141, i32 2505, metadata !756, i1 false, i1 false, i32 0, i32 0, null, i32 256, i1 false, null, null, i32 0, metadata !153, i32 2505} ; [ DW_TAG_subprogram ]
!756 = metadata !{i32 786453, i32 0, metadata !"", i32 0, i32 0, i64 0, i64 0, i64 0, i32 0, null, metadata !757, i32 0, i32 0} ; [ DW_TAG_subroutine_type ]
!757 = metadata !{null, metadata !709, metadata !243, metadata !189}
!758 = metadata !{i32 786478, i32 0, metadata !693, metadata !"read", metadata !"read", metadata !"_ZNV11ap_int_baseILi128ELb0ELb0EE4readEv", metadata !141, i32 2526, metadata !759, i1 false, i1 false, i32 0, i32 0, null, i32 256, i1 false, null, null, i32 0, metadata !153, i32 2526} ; [ DW_TAG_subprogram ]
!759 = metadata !{i32 786453, i32 0, metadata !"", i32 0, i32 0, i64 0, i64 0, i64 0, i32 0, null, metadata !760, i32 0, i32 0} ; [ DW_TAG_subroutine_type ]
!760 = metadata !{metadata !693, metadata !761}
!761 = metadata !{i32 786447, i32 0, metadata !"", i32 0, i32 0, i64 64, i64 64, i64 0, i32 64, metadata !762} ; [ DW_TAG_pointer_type ]
!762 = metadata !{i32 786485, null, metadata !"", null, i32 0, i64 0, i64 0, i64 0, i32 0, metadata !693} ; [ DW_TAG_volatile_type ]
!763 = metadata !{i32 786478, i32 0, metadata !693, metadata !"write", metadata !"write", metadata !"_ZNV11ap_int_baseILi128ELb0ELb0EE5writeERKS0_", metadata !141, i32 2532, metadata !764, i1 false, i1 false, i32 0, i32 0, null, i32 256, i1 false, null, null, i32 0, metadata !153, i32 2532} ; [ DW_TAG_subprogram ]
!764 = metadata !{i32 786453, i32 0, metadata !"", i32 0, i32 0, i64 0, i64 0, i64 0, i32 0, null, metadata !765, i32 0, i32 0} ; [ DW_TAG_subroutine_type ]
!765 = metadata !{null, metadata !761, metadata !766}
!766 = metadata !{i32 786448, null, null, null, i32 0, i64 0, i64 0, i64 0, i32 0, metadata !767} ; [ DW_TAG_reference_type ]
!767 = metadata !{i32 786470, null, metadata !"", null, i32 0, i64 0, i64 0, i64 0, i32 0, metadata !693} ; [ DW_TAG_const_type ]
!768 = metadata !{i32 786478, i32 0, metadata !693, metadata !"operator=", metadata !"operator=", metadata !"_ZNV11ap_int_baseILi128ELb0ELb0EEaSERVKS0_", metadata !141, i32 2544, metadata !769, i1 false, i1 false, i32 0, i32 0, null, i32 256, i1 false, null, null, i32 0, metadata !153, i32 2544} ; [ DW_TAG_subprogram ]
!769 = metadata !{i32 786453, i32 0, metadata !"", i32 0, i32 0, i64 0, i64 0, i64 0, i32 0, null, metadata !770, i32 0, i32 0} ; [ DW_TAG_subroutine_type ]
!770 = metadata !{null, metadata !761, metadata !771}
!771 = metadata !{i32 786448, null, null, null, i32 0, i64 0, i64 0, i64 0, i32 0, metadata !772} ; [ DW_TAG_reference_type ]
!772 = metadata !{i32 786470, null, metadata !"", null, i32 0, i64 0, i64 0, i64 0, i32 0, metadata !762} ; [ DW_TAG_const_type ]
!773 = metadata !{i32 786478, i32 0, metadata !693, metadata !"operator=", metadata !"operator=", metadata !"_ZNV11ap_int_baseILi128ELb0ELb0EEaSERKS0_", metadata !141, i32 2553, metadata !764, i1 false, i1 false, i32 0, i32 0, null, i32 256, i1 false, null, null, i32 0, metadata !153, i32 2553} ; [ DW_TAG_subprogram ]
!774 = metadata !{i32 786478, i32 0, metadata !693, metadata !"operator=", metadata !"operator=", metadata !"_ZN11ap_int_baseILi128ELb0ELb0EEaSERVKS0_", metadata !141, i32 2576, metadata !775, i1 false, i1 false, i32 0, i32 0, null, i32 256, i1 false, null, null, i32 0, metadata !153, i32 2576} ; [ DW_TAG_subprogram ]
!775 = metadata !{i32 786453, i32 0, metadata !"", i32 0, i32 0, i64 0, i64 0, i64 0, i32 0, null, metadata !776, i32 0, i32 0} ; [ DW_TAG_subroutine_type ]
!776 = metadata !{metadata !777, metadata !709, metadata !771}
!777 = metadata !{i32 786448, null, null, null, i32 0, i64 0, i64 0, i64 0, i32 0, metadata !693} ; [ DW_TAG_reference_type ]
!778 = metadata !{i32 786478, i32 0, metadata !693, metadata !"operator=", metadata !"operator=", metadata !"_ZN11ap_int_baseILi128ELb0ELb0EEaSERKS0_", metadata !141, i32 2581, metadata !779, i1 false, i1 false, i32 0, i32 0, null, i32 256, i1 false, null, null, i32 0, metadata !153, i32 2581} ; [ DW_TAG_subprogram ]
!779 = metadata !{i32 786453, i32 0, metadata !"", i32 0, i32 0, i64 0, i64 0, i64 0, i32 0, null, metadata !780, i32 0, i32 0} ; [ DW_TAG_subroutine_type ]
!780 = metadata !{metadata !777, metadata !709, metadata !766}
!781 = metadata !{i32 786478, i32 0, metadata !693, metadata !"operator=", metadata !"operator=", metadata !"_ZN11ap_int_baseILi128ELb0ELb0EEaSEPKc", metadata !141, i32 2585, metadata !782, i1 false, i1 false, i32 0, i32 0, null, i32 256, i1 false, null, null, i32 0, metadata !153, i32 2585} ; [ DW_TAG_subprogram ]
!782 = metadata !{i32 786453, i32 0, metadata !"", i32 0, i32 0, i64 0, i64 0, i64 0, i32 0, null, metadata !783, i32 0, i32 0} ; [ DW_TAG_subroutine_type ]
!783 = metadata !{metadata !777, metadata !709, metadata !243}
!784 = metadata !{i32 786478, i32 0, metadata !693, metadata !"set", metadata !"set", metadata !"_ZN11ap_int_baseILi128ELb0ELb0EE3setEPKca", metadata !141, i32 2593, metadata !785, i1 false, i1 false, i32 0, i32 0, null, i32 256, i1 false, null, null, i32 0, metadata !153, i32 2593} ; [ DW_TAG_subprogram ]
!785 = metadata !{i32 786453, i32 0, metadata !"", i32 0, i32 0, i64 0, i64 0, i64 0, i32 0, null, metadata !786, i32 0, i32 0} ; [ DW_TAG_subroutine_type ]
!786 = metadata !{metadata !777, metadata !709, metadata !243, metadata !189}
!787 = metadata !{i32 786478, i32 0, metadata !693, metadata !"operator=", metadata !"operator=", metadata !"_ZN11ap_int_baseILi128ELb0ELb0EEaSEc", metadata !141, i32 2607, metadata !788, i1 false, i1 false, i32 0, i32 0, null, i32 256, i1 false, null, null, i32 0, metadata !153, i32 2607} ; [ DW_TAG_subprogram ]
!788 = metadata !{i32 786453, i32 0, metadata !"", i32 0, i32 0, i64 0, i64 0, i64 0, i32 0, null, metadata !789, i32 0, i32 0} ; [ DW_TAG_subroutine_type ]
!789 = metadata !{metadata !777, metadata !709, metadata !245}
!790 = metadata !{i32 786478, i32 0, metadata !693, metadata !"operator=", metadata !"operator=", metadata !"_ZN11ap_int_baseILi128ELb0ELb0EEaSEh", metadata !141, i32 2608, metadata !791, i1 false, i1 false, i32 0, i32 0, null, i32 256, i1 false, null, null, i32 0, metadata !153, i32 2608} ; [ DW_TAG_subprogram ]
!791 = metadata !{i32 786453, i32 0, metadata !"", i32 0, i32 0, i64 0, i64 0, i64 0, i32 0, null, metadata !792, i32 0, i32 0} ; [ DW_TAG_subroutine_type ]
!792 = metadata !{metadata !777, metadata !709, metadata !193}
!793 = metadata !{i32 786478, i32 0, metadata !693, metadata !"operator=", metadata !"operator=", metadata !"_ZN11ap_int_baseILi128ELb0ELb0EEaSEs", metadata !141, i32 2609, metadata !794, i1 false, i1 false, i32 0, i32 0, null, i32 256, i1 false, null, null, i32 0, metadata !153, i32 2609} ; [ DW_TAG_subprogram ]
!794 = metadata !{i32 786453, i32 0, metadata !"", i32 0, i32 0, i64 0, i64 0, i64 0, i32 0, null, metadata !795, i32 0, i32 0} ; [ DW_TAG_subroutine_type ]
!795 = metadata !{metadata !777, metadata !709, metadata !197}
!796 = metadata !{i32 786478, i32 0, metadata !693, metadata !"operator=", metadata !"operator=", metadata !"_ZN11ap_int_baseILi128ELb0ELb0EEaSEt", metadata !141, i32 2610, metadata !797, i1 false, i1 false, i32 0, i32 0, null, i32 256, i1 false, null, null, i32 0, metadata !153, i32 2610} ; [ DW_TAG_subprogram ]
!797 = metadata !{i32 786453, i32 0, metadata !"", i32 0, i32 0, i64 0, i64 0, i64 0, i32 0, null, metadata !798, i32 0, i32 0} ; [ DW_TAG_subroutine_type ]
!798 = metadata !{metadata !777, metadata !709, metadata !201}
!799 = metadata !{i32 786478, i32 0, metadata !693, metadata !"operator=", metadata !"operator=", metadata !"_ZN11ap_int_baseILi128ELb0ELb0EEaSEi", metadata !141, i32 2611, metadata !800, i1 false, i1 false, i32 0, i32 0, null, i32 256, i1 false, null, null, i32 0, metadata !153, i32 2611} ; [ DW_TAG_subprogram ]
!800 = metadata !{i32 786453, i32 0, metadata !"", i32 0, i32 0, i64 0, i64 0, i64 0, i32 0, null, metadata !801, i32 0, i32 0} ; [ DW_TAG_subroutine_type ]
!801 = metadata !{metadata !777, metadata !709, metadata !162}
!802 = metadata !{i32 786478, i32 0, metadata !693, metadata !"operator=", metadata !"operator=", metadata !"_ZN11ap_int_baseILi128ELb0ELb0EEaSEj", metadata !141, i32 2612, metadata !803, i1 false, i1 false, i32 0, i32 0, null, i32 256, i1 false, null, null, i32 0, metadata !153, i32 2612} ; [ DW_TAG_subprogram ]
!803 = metadata !{i32 786453, i32 0, metadata !"", i32 0, i32 0, i64 0, i64 0, i64 0, i32 0, null, metadata !804, i32 0, i32 0} ; [ DW_TAG_subroutine_type ]
!804 = metadata !{metadata !777, metadata !709, metadata !208}
!805 = metadata !{i32 786478, i32 0, metadata !693, metadata !"operator=", metadata !"operator=", metadata !"_ZN11ap_int_baseILi128ELb0ELb0EEaSEx", metadata !141, i32 2613, metadata !806, i1 false, i1 false, i32 0, i32 0, null, i32 256, i1 false, null, null, i32 0, metadata !153, i32 2613} ; [ DW_TAG_subprogram ]
!806 = metadata !{i32 786453, i32 0, metadata !"", i32 0, i32 0, i64 0, i64 0, i64 0, i32 0, null, metadata !807, i32 0, i32 0} ; [ DW_TAG_subroutine_type ]
!807 = metadata !{metadata !777, metadata !709, metadata !220}
!808 = metadata !{i32 786478, i32 0, metadata !693, metadata !"operator=", metadata !"operator=", metadata !"_ZN11ap_int_baseILi128ELb0ELb0EEaSEy", metadata !141, i32 2614, metadata !809, i1 false, i1 false, i32 0, i32 0, null, i32 256, i1 false, null, null, i32 0, metadata !153, i32 2614} ; [ DW_TAG_subprogram ]
!809 = metadata !{i32 786453, i32 0, metadata !"", i32 0, i32 0, i64 0, i64 0, i64 0, i32 0, null, metadata !810, i32 0, i32 0} ; [ DW_TAG_subroutine_type ]
!810 = metadata !{metadata !777, metadata !709, metadata !225}
!811 = metadata !{i32 786478, i32 0, metadata !693, metadata !"operator unsigned long long", metadata !"operator unsigned long long", metadata !"_ZNK11ap_int_baseILi128ELb0ELb0EEcvyEv", metadata !141, i32 2653, metadata !812, i1 false, i1 false, i32 0, i32 0, null, i32 256, i1 false, null, null, i32 0, metadata !153, i32 2653} ; [ DW_TAG_subprogram ]
!812 = metadata !{i32 786453, i32 0, metadata !"", i32 0, i32 0, i64 0, i64 0, i64 0, i32 0, null, metadata !813, i32 0, i32 0} ; [ DW_TAG_subroutine_type ]
!813 = metadata !{metadata !814, metadata !815}
!814 = metadata !{i32 786454, metadata !693, metadata !"RetType", metadata !141, i32 2402, i64 0, i64 0, i64 0, i32 0, metadata !301} ; [ DW_TAG_typedef ]
!815 = metadata !{i32 786447, i32 0, metadata !"", i32 0, i32 0, i64 64, i64 64, i64 0, i32 64, metadata !767} ; [ DW_TAG_pointer_type ]
!816 = metadata !{i32 786478, i32 0, metadata !693, metadata !"to_bool", metadata !"to_bool", metadata !"_ZNK11ap_int_baseILi128ELb0ELb0EE7to_boolEv", metadata !141, i32 2659, metadata !817, i1 false, i1 false, i32 0, i32 0, null, i32 256, i1 false, null, null, i32 0, metadata !153, i32 2659} ; [ DW_TAG_subprogram ]
!817 = metadata !{i32 786453, i32 0, metadata !"", i32 0, i32 0, i64 0, i64 0, i64 0, i32 0, null, metadata !818, i32 0, i32 0} ; [ DW_TAG_subroutine_type ]
!818 = metadata !{metadata !164, metadata !815}
!819 = metadata !{i32 786478, i32 0, metadata !693, metadata !"to_uchar", metadata !"to_uchar", metadata !"_ZNK11ap_int_baseILi128ELb0ELb0EE8to_ucharEv", metadata !141, i32 2660, metadata !817, i1 false, i1 false, i32 0, i32 0, null, i32 256, i1 false, null, null, i32 0, metadata !153, i32 2660} ; [ DW_TAG_subprogram ]
!820 = metadata !{i32 786478, i32 0, metadata !693, metadata !"to_char", metadata !"to_char", metadata !"_ZNK11ap_int_baseILi128ELb0ELb0EE7to_charEv", metadata !141, i32 2661, metadata !817, i1 false, i1 false, i32 0, i32 0, null, i32 256, i1 false, null, null, i32 0, metadata !153, i32 2661} ; [ DW_TAG_subprogram ]
!821 = metadata !{i32 786478, i32 0, metadata !693, metadata !"to_ushort", metadata !"to_ushort", metadata !"_ZNK11ap_int_baseILi128ELb0ELb0EE9to_ushortEv", metadata !141, i32 2662, metadata !817, i1 false, i1 false, i32 0, i32 0, null, i32 256, i1 false, null, null, i32 0, metadata !153, i32 2662} ; [ DW_TAG_subprogram ]
!822 = metadata !{i32 786478, i32 0, metadata !693, metadata !"to_short", metadata !"to_short", metadata !"_ZNK11ap_int_baseILi128ELb0ELb0EE8to_shortEv", metadata !141, i32 2663, metadata !817, i1 false, i1 false, i32 0, i32 0, null, i32 256, i1 false, null, null, i32 0, metadata !153, i32 2663} ; [ DW_TAG_subprogram ]
!823 = metadata !{i32 786478, i32 0, metadata !693, metadata !"to_int", metadata !"to_int", metadata !"_ZNK11ap_int_baseILi128ELb0ELb0EE6to_intEv", metadata !141, i32 2664, metadata !824, i1 false, i1 false, i32 0, i32 0, null, i32 256, i1 false, null, null, i32 0, metadata !153, i32 2664} ; [ DW_TAG_subprogram ]
!824 = metadata !{i32 786453, i32 0, metadata !"", i32 0, i32 0, i64 0, i64 0, i64 0, i32 0, null, metadata !825, i32 0, i32 0} ; [ DW_TAG_subroutine_type ]
!825 = metadata !{metadata !162, metadata !815}
!826 = metadata !{i32 786478, i32 0, metadata !693, metadata !"to_uint", metadata !"to_uint", metadata !"_ZNK11ap_int_baseILi128ELb0ELb0EE7to_uintEv", metadata !141, i32 2665, metadata !827, i1 false, i1 false, i32 0, i32 0, null, i32 256, i1 false, null, null, i32 0, metadata !153, i32 2665} ; [ DW_TAG_subprogram ]
!827 = metadata !{i32 786453, i32 0, metadata !"", i32 0, i32 0, i64 0, i64 0, i64 0, i32 0, null, metadata !828, i32 0, i32 0} ; [ DW_TAG_subroutine_type ]
!828 = metadata !{metadata !208, metadata !815}
!829 = metadata !{i32 786478, i32 0, metadata !693, metadata !"to_long", metadata !"to_long", metadata !"_ZNK11ap_int_baseILi128ELb0ELb0EE7to_longEv", metadata !141, i32 2666, metadata !830, i1 false, i1 false, i32 0, i32 0, null, i32 256, i1 false, null, null, i32 0, metadata !153, i32 2666} ; [ DW_TAG_subprogram ]
!830 = metadata !{i32 786453, i32 0, metadata !"", i32 0, i32 0, i64 0, i64 0, i64 0, i32 0, null, metadata !831, i32 0, i32 0} ; [ DW_TAG_subroutine_type ]
!831 = metadata !{metadata !212, metadata !815}
!832 = metadata !{i32 786478, i32 0, metadata !693, metadata !"to_ulong", metadata !"to_ulong", metadata !"_ZNK11ap_int_baseILi128ELb0ELb0EE8to_ulongEv", metadata !141, i32 2667, metadata !833, i1 false, i1 false, i32 0, i32 0, null, i32 256, i1 false, null, null, i32 0, metadata !153, i32 2667} ; [ DW_TAG_subprogram ]
!833 = metadata !{i32 786453, i32 0, metadata !"", i32 0, i32 0, i64 0, i64 0, i64 0, i32 0, null, metadata !834, i32 0, i32 0} ; [ DW_TAG_subroutine_type ]
!834 = metadata !{metadata !216, metadata !815}
!835 = metadata !{i32 786478, i32 0, metadata !693, metadata !"to_int64", metadata !"to_int64", metadata !"_ZNK11ap_int_baseILi128ELb0ELb0EE8to_int64Ev", metadata !141, i32 2668, metadata !836, i1 false, i1 false, i32 0, i32 0, null, i32 256, i1 false, null, null, i32 0, metadata !153, i32 2668} ; [ DW_TAG_subprogram ]
!836 = metadata !{i32 786453, i32 0, metadata !"", i32 0, i32 0, i64 0, i64 0, i64 0, i32 0, null, metadata !837, i32 0, i32 0} ; [ DW_TAG_subroutine_type ]
!837 = metadata !{metadata !220, metadata !815}
!838 = metadata !{i32 786478, i32 0, metadata !693, metadata !"to_uint64", metadata !"to_uint64", metadata !"_ZNK11ap_int_baseILi128ELb0ELb0EE9to_uint64Ev", metadata !141, i32 2669, metadata !839, i1 false, i1 false, i32 0, i32 0, null, i32 256, i1 false, null, null, i32 0, metadata !153, i32 2669} ; [ DW_TAG_subprogram ]
!839 = metadata !{i32 786453, i32 0, metadata !"", i32 0, i32 0, i64 0, i64 0, i64 0, i32 0, null, metadata !840, i32 0, i32 0} ; [ DW_TAG_subroutine_type ]
!840 = metadata !{metadata !225, metadata !815}
!841 = metadata !{i32 786478, i32 0, metadata !693, metadata !"to_double", metadata !"to_double", metadata !"_ZNK11ap_int_baseILi128ELb0ELb0EE9to_doubleEv", metadata !141, i32 2670, metadata !842, i1 false, i1 false, i32 0, i32 0, null, i32 256, i1 false, null, null, i32 0, metadata !153, i32 2670} ; [ DW_TAG_subprogram ]
!842 = metadata !{i32 786453, i32 0, metadata !"", i32 0, i32 0, i64 0, i64 0, i64 0, i32 0, null, metadata !843, i32 0, i32 0} ; [ DW_TAG_subroutine_type ]
!843 = metadata !{metadata !239, metadata !815}
!844 = metadata !{i32 786478, i32 0, metadata !693, metadata !"length", metadata !"length", metadata !"_ZNK11ap_int_baseILi128ELb0ELb0EE6lengthEv", metadata !141, i32 2683, metadata !824, i1 false, i1 false, i32 0, i32 0, null, i32 256, i1 false, null, null, i32 0, metadata !153, i32 2683} ; [ DW_TAG_subprogram ]
!845 = metadata !{i32 786478, i32 0, metadata !693, metadata !"length", metadata !"length", metadata !"_ZNVK11ap_int_baseILi128ELb0ELb0EE6lengthEv", metadata !141, i32 2684, metadata !846, i1 false, i1 false, i32 0, i32 0, null, i32 256, i1 false, null, null, i32 0, metadata !153, i32 2684} ; [ DW_TAG_subprogram ]
!846 = metadata !{i32 786453, i32 0, metadata !"", i32 0, i32 0, i64 0, i64 0, i64 0, i32 0, null, metadata !847, i32 0, i32 0} ; [ DW_TAG_subroutine_type ]
!847 = metadata !{metadata !162, metadata !848}
!848 = metadata !{i32 786447, i32 0, metadata !"", i32 0, i32 0, i64 64, i64 64, i64 0, i32 64, metadata !772} ; [ DW_TAG_pointer_type ]
!849 = metadata !{i32 786478, i32 0, metadata !693, metadata !"reverse", metadata !"reverse", metadata !"_ZN11ap_int_baseILi128ELb0ELb0EE7reverseEv", metadata !141, i32 2689, metadata !850, i1 false, i1 false, i32 0, i32 0, null, i32 256, i1 false, null, null, i32 0, metadata !153, i32 2689} ; [ DW_TAG_subprogram ]
!850 = metadata !{i32 786453, i32 0, metadata !"", i32 0, i32 0, i64 0, i64 0, i64 0, i32 0, null, metadata !851, i32 0, i32 0} ; [ DW_TAG_subroutine_type ]
!851 = metadata !{metadata !777, metadata !709}
!852 = metadata !{i32 786478, i32 0, metadata !693, metadata !"iszero", metadata !"iszero", metadata !"_ZNK11ap_int_baseILi128ELb0ELb0EE6iszeroEv", metadata !141, i32 2695, metadata !817, i1 false, i1 false, i32 0, i32 0, null, i32 256, i1 false, null, null, i32 0, metadata !153, i32 2695} ; [ DW_TAG_subprogram ]
!853 = metadata !{i32 786478, i32 0, metadata !693, metadata !"is_zero", metadata !"is_zero", metadata !"_ZNK11ap_int_baseILi128ELb0ELb0EE7is_zeroEv", metadata !141, i32 2700, metadata !817, i1 false, i1 false, i32 0, i32 0, null, i32 256, i1 false, null, null, i32 0, metadata !153, i32 2700} ; [ DW_TAG_subprogram ]
!854 = metadata !{i32 786478, i32 0, metadata !693, metadata !"sign", metadata !"sign", metadata !"_ZNK11ap_int_baseILi128ELb0ELb0EE4signEv", metadata !141, i32 2705, metadata !817, i1 false, i1 false, i32 0, i32 0, null, i32 256, i1 false, null, null, i32 0, metadata !153, i32 2705} ; [ DW_TAG_subprogram ]
!855 = metadata !{i32 786478, i32 0, metadata !693, metadata !"clear", metadata !"clear", metadata !"_ZN11ap_int_baseILi128ELb0ELb0EE5clearEi", metadata !141, i32 2713, metadata !726, i1 false, i1 false, i32 0, i32 0, null, i32 256, i1 false, null, null, i32 0, metadata !153, i32 2713} ; [ DW_TAG_subprogram ]
!856 = metadata !{i32 786478, i32 0, metadata !693, metadata !"invert", metadata !"invert", metadata !"_ZN11ap_int_baseILi128ELb0ELb0EE6invertEi", metadata !141, i32 2719, metadata !726, i1 false, i1 false, i32 0, i32 0, null, i32 256, i1 false, null, null, i32 0, metadata !153, i32 2719} ; [ DW_TAG_subprogram ]
!857 = metadata !{i32 786478, i32 0, metadata !693, metadata !"test", metadata !"test", metadata !"_ZNK11ap_int_baseILi128ELb0ELb0EE4testEi", metadata !141, i32 2727, metadata !858, i1 false, i1 false, i32 0, i32 0, null, i32 256, i1 false, null, null, i32 0, metadata !153, i32 2727} ; [ DW_TAG_subprogram ]
!858 = metadata !{i32 786453, i32 0, metadata !"", i32 0, i32 0, i64 0, i64 0, i64 0, i32 0, null, metadata !859, i32 0, i32 0} ; [ DW_TAG_subroutine_type ]
!859 = metadata !{metadata !164, metadata !815, metadata !162}
!860 = metadata !{i32 786478, i32 0, metadata !693, metadata !"set", metadata !"set", metadata !"_ZN11ap_int_baseILi128ELb0ELb0EE3setEi", metadata !141, i32 2733, metadata !726, i1 false, i1 false, i32 0, i32 0, null, i32 256, i1 false, null, null, i32 0, metadata !153, i32 2733} ; [ DW_TAG_subprogram ]
!861 = metadata !{i32 786478, i32 0, metadata !693, metadata !"set", metadata !"set", metadata !"_ZN11ap_int_baseILi128ELb0ELb0EE3setEib", metadata !141, i32 2739, metadata !862, i1 false, i1 false, i32 0, i32 0, null, i32 256, i1 false, null, null, i32 0, metadata !153, i32 2739} ; [ DW_TAG_subprogram ]
!862 = metadata !{i32 786453, i32 0, metadata !"", i32 0, i32 0, i64 0, i64 0, i64 0, i32 0, null, metadata !863, i32 0, i32 0} ; [ DW_TAG_subroutine_type ]
!863 = metadata !{null, metadata !709, metadata !162, metadata !164}
!864 = metadata !{i32 786478, i32 0, metadata !693, metadata !"lrotate", metadata !"lrotate", metadata !"_ZN11ap_int_baseILi128ELb0ELb0EE7lrotateEi", metadata !141, i32 2746, metadata !726, i1 false, i1 false, i32 0, i32 0, null, i32 256, i1 false, null, null, i32 0, metadata !153, i32 2746} ; [ DW_TAG_subprogram ]
!865 = metadata !{i32 786478, i32 0, metadata !693, metadata !"rrotate", metadata !"rrotate", metadata !"_ZN11ap_int_baseILi128ELb0ELb0EE7rrotateEi", metadata !141, i32 2755, metadata !726, i1 false, i1 false, i32 0, i32 0, null, i32 256, i1 false, null, null, i32 0, metadata !153, i32 2755} ; [ DW_TAG_subprogram ]
!866 = metadata !{i32 786478, i32 0, metadata !693, metadata !"set_bit", metadata !"set_bit", metadata !"_ZN11ap_int_baseILi128ELb0ELb0EE7set_bitEib", metadata !141, i32 2763, metadata !862, i1 false, i1 false, i32 0, i32 0, null, i32 256, i1 false, null, null, i32 0, metadata !153, i32 2763} ; [ DW_TAG_subprogram ]
!867 = metadata !{i32 786478, i32 0, metadata !693, metadata !"get_bit", metadata !"get_bit", metadata !"_ZNK11ap_int_baseILi128ELb0ELb0EE7get_bitEi", metadata !141, i32 2768, metadata !858, i1 false, i1 false, i32 0, i32 0, null, i32 256, i1 false, null, null, i32 0, metadata !153, i32 2768} ; [ DW_TAG_subprogram ]
!868 = metadata !{i32 786478, i32 0, metadata !693, metadata !"b_not", metadata !"b_not", metadata !"_ZN11ap_int_baseILi128ELb0ELb0EE5b_notEv", metadata !141, i32 2773, metadata !707, i1 false, i1 false, i32 0, i32 0, null, i32 256, i1 false, null, null, i32 0, metadata !153, i32 2773} ; [ DW_TAG_subprogram ]
!869 = metadata !{i32 786478, i32 0, metadata !693, metadata !"countLeadingZeros", metadata !"countLeadingZeros", metadata !"_ZN11ap_int_baseILi128ELb0ELb0EE17countLeadingZerosEv", metadata !141, i32 2780, metadata !870, i1 false, i1 false, i32 0, i32 0, null, i32 256, i1 false, null, null, i32 0, metadata !153, i32 2780} ; [ DW_TAG_subprogram ]
!870 = metadata !{i32 786453, i32 0, metadata !"", i32 0, i32 0, i64 0, i64 0, i64 0, i32 0, null, metadata !871, i32 0, i32 0} ; [ DW_TAG_subroutine_type ]
!871 = metadata !{metadata !162, metadata !709}
!872 = metadata !{i32 786478, i32 0, metadata !693, metadata !"operator++", metadata !"operator++", metadata !"_ZN11ap_int_baseILi128ELb0ELb0EEppEv", metadata !141, i32 2837, metadata !850, i1 false, i1 false, i32 0, i32 0, null, i32 256, i1 false, null, null, i32 0, metadata !153, i32 2837} ; [ DW_TAG_subprogram ]
!873 = metadata !{i32 786478, i32 0, metadata !693, metadata !"operator--", metadata !"operator--", metadata !"_ZN11ap_int_baseILi128ELb0ELb0EEmmEv", metadata !141, i32 2841, metadata !850, i1 false, i1 false, i32 0, i32 0, null, i32 256, i1 false, null, null, i32 0, metadata !153, i32 2841} ; [ DW_TAG_subprogram ]
!874 = metadata !{i32 786478, i32 0, metadata !693, metadata !"operator++", metadata !"operator++", metadata !"_ZN11ap_int_baseILi128ELb0ELb0EEppEi", metadata !141, i32 2849, metadata !875, i1 false, i1 false, i32 0, i32 0, null, i32 256, i1 false, null, null, i32 0, metadata !153, i32 2849} ; [ DW_TAG_subprogram ]
!875 = metadata !{i32 786453, i32 0, metadata !"", i32 0, i32 0, i64 0, i64 0, i64 0, i32 0, null, metadata !876, i32 0, i32 0} ; [ DW_TAG_subroutine_type ]
!876 = metadata !{metadata !767, metadata !709, metadata !162}
!877 = metadata !{i32 786478, i32 0, metadata !693, metadata !"operator--", metadata !"operator--", metadata !"_ZN11ap_int_baseILi128ELb0ELb0EEmmEi", metadata !141, i32 2854, metadata !875, i1 false, i1 false, i32 0, i32 0, null, i32 256, i1 false, null, null, i32 0, metadata !153, i32 2854} ; [ DW_TAG_subprogram ]
!878 = metadata !{i32 786478, i32 0, metadata !693, metadata !"operator+", metadata !"operator+", metadata !"_ZNK11ap_int_baseILi128ELb0ELb0EEpsEv", metadata !141, i32 2863, metadata !879, i1 false, i1 false, i32 0, i32 0, null, i32 256, i1 false, null, null, i32 0, metadata !153, i32 2863} ; [ DW_TAG_subprogram ]
!879 = metadata !{i32 786453, i32 0, metadata !"", i32 0, i32 0, i64 0, i64 0, i64 0, i32 0, null, metadata !880, i32 0, i32 0} ; [ DW_TAG_subroutine_type ]
!880 = metadata !{metadata !693, metadata !815}
!881 = metadata !{i32 786478, i32 0, metadata !693, metadata !"operator-", metadata !"operator-", metadata !"_ZNK11ap_int_baseILi128ELb0ELb0EEngEv", metadata !141, i32 2867, metadata !882, i1 false, i1 false, i32 0, i32 0, null, i32 256, i1 false, null, null, i32 0, metadata !153, i32 2867} ; [ DW_TAG_subprogram ]
!882 = metadata !{i32 786453, i32 0, metadata !"", i32 0, i32 0, i64 0, i64 0, i64 0, i32 0, null, metadata !883, i32 0, i32 0} ; [ DW_TAG_subroutine_type ]
!883 = metadata !{metadata !884, metadata !815}
!884 = metadata !{i32 786454, metadata !885, metadata !"minus", metadata !141, i32 2425, i64 0, i64 0, i64 0, i32 0, metadata !888} ; [ DW_TAG_typedef ]
!885 = metadata !{i32 786434, metadata !693, metadata !"RType<1, false>", metadata !141, i32 2407, i64 8, i64 8, i32 0, i32 0, null, metadata !303, i32 0, null, metadata !886} ; [ DW_TAG_class_type ]
!886 = metadata !{metadata !887, metadata !176}
!887 = metadata !{i32 786480, null, metadata !"_AP_W2", metadata !162, i64 1, null, i32 0, i32 0} ; [ DW_TAG_template_value_parameter ]
!888 = metadata !{i32 786434, null, metadata !"ap_int_base<129, true, false>", metadata !141, i32 651, i64 0, i64 0, i32 0, i32 4, null, null, i32 0, null, metadata !889} ; [ DW_TAG_class_type ]
!889 = metadata !{metadata !890, metadata !396, metadata !891}
!890 = metadata !{i32 786480, null, metadata !"_AP_W", metadata !162, i64 129, null, i32 0, i32 0} ; [ DW_TAG_template_value_parameter ]
!891 = metadata !{i32 786480, null, metadata !"_AP_C", metadata !164, i64 0, null, i32 0, i32 0} ; [ DW_TAG_template_value_parameter ]
!892 = metadata !{i32 786478, i32 0, metadata !693, metadata !"operator!", metadata !"operator!", metadata !"_ZNK11ap_int_baseILi128ELb0ELb0EEntEv", metadata !141, i32 2874, metadata !817, i1 false, i1 false, i32 0, i32 0, null, i32 256, i1 false, null, null, i32 0, metadata !153, i32 2874} ; [ DW_TAG_subprogram ]
!893 = metadata !{i32 786478, i32 0, metadata !693, metadata !"operator~", metadata !"operator~", metadata !"_ZNK11ap_int_baseILi128ELb0ELb0EEcoEv", metadata !141, i32 2881, metadata !894, i1 false, i1 false, i32 0, i32 0, null, i32 256, i1 false, null, null, i32 0, metadata !153, i32 2881} ; [ DW_TAG_subprogram ]
!894 = metadata !{i32 786453, i32 0, metadata !"", i32 0, i32 0, i64 0, i64 0, i64 0, i32 0, null, metadata !895, i32 0, i32 0} ; [ DW_TAG_subroutine_type ]
!895 = metadata !{metadata !888, metadata !815}
!896 = metadata !{i32 786478, i32 0, metadata !693, metadata !"range", metadata !"range", metadata !"_ZN11ap_int_baseILi128ELb0ELb0EE5rangeEii", metadata !141, i32 3008, metadata !897, i1 false, i1 false, i32 0, i32 0, null, i32 256, i1 false, null, null, i32 0, metadata !153, i32 3008} ; [ DW_TAG_subprogram ]
!897 = metadata !{i32 786453, i32 0, metadata !"", i32 0, i32 0, i64 0, i64 0, i64 0, i32 0, null, metadata !898, i32 0, i32 0} ; [ DW_TAG_subroutine_type ]
!898 = metadata !{metadata !899, metadata !709, metadata !162, metadata !162}
!899 = metadata !{i32 786434, null, metadata !"ap_range_ref<128, false>", metadata !141, i32 925, i64 0, i64 0, i32 0, i32 4, null, null, i32 0, null, metadata !900} ; [ DW_TAG_class_type ]
!900 = metadata !{metadata !901, metadata !163}
!901 = metadata !{i32 786480, null, metadata !"_AP_W", metadata !162, i64 128, null, i32 0, i32 0} ; [ DW_TAG_template_value_parameter ]
!902 = metadata !{i32 786478, i32 0, metadata !693, metadata !"operator()", metadata !"operator()", metadata !"_ZN11ap_int_baseILi128ELb0ELb0EEclEii", metadata !141, i32 3014, metadata !897, i1 false, i1 false, i32 0, i32 0, null, i32 256, i1 false, null, null, i32 0, metadata !153, i32 3014} ; [ DW_TAG_subprogram ]
!903 = metadata !{i32 786478, i32 0, metadata !693, metadata !"range", metadata !"range", metadata !"_ZNK11ap_int_baseILi128ELb0ELb0EE5rangeEii", metadata !141, i32 3020, metadata !904, i1 false, i1 false, i32 0, i32 0, null, i32 256, i1 false, null, null, i32 0, metadata !153, i32 3020} ; [ DW_TAG_subprogram ]
!904 = metadata !{i32 786453, i32 0, metadata !"", i32 0, i32 0, i64 0, i64 0, i64 0, i32 0, null, metadata !905, i32 0, i32 0} ; [ DW_TAG_subroutine_type ]
!905 = metadata !{metadata !899, metadata !815, metadata !162, metadata !162}
!906 = metadata !{i32 786478, i32 0, metadata !693, metadata !"operator()", metadata !"operator()", metadata !"_ZNK11ap_int_baseILi128ELb0ELb0EEclEii", metadata !141, i32 3026, metadata !904, i1 false, i1 false, i32 0, i32 0, null, i32 256, i1 false, null, null, i32 0, metadata !153, i32 3026} ; [ DW_TAG_subprogram ]
!907 = metadata !{i32 786478, i32 0, metadata !693, metadata !"operator[]", metadata !"operator[]", metadata !"_ZN11ap_int_baseILi128ELb0ELb0EEixEi", metadata !141, i32 3046, metadata !908, i1 false, i1 false, i32 0, i32 0, null, i32 256, i1 false, null, null, i32 0, metadata !153, i32 3046} ; [ DW_TAG_subprogram ]
!908 = metadata !{i32 786453, i32 0, metadata !"", i32 0, i32 0, i64 0, i64 0, i64 0, i32 0, null, metadata !909, i32 0, i32 0} ; [ DW_TAG_subroutine_type ]
!909 = metadata !{metadata !910, metadata !709, metadata !162}
!910 = metadata !{i32 786434, null, metadata !"ap_bit_ref<128, false>", metadata !141, i32 1249, i64 0, i64 0, i32 0, i32 4, null, null, i32 0, null, metadata !900} ; [ DW_TAG_class_type ]
!911 = metadata !{i32 786478, i32 0, metadata !693, metadata !"operator[]", metadata !"operator[]", metadata !"_ZNK11ap_int_baseILi128ELb0ELb0EEixEi", metadata !141, i32 3060, metadata !858, i1 false, i1 false, i32 0, i32 0, null, i32 256, i1 false, null, null, i32 0, metadata !153, i32 3060} ; [ DW_TAG_subprogram ]
!912 = metadata !{i32 786478, i32 0, metadata !693, metadata !"bit", metadata !"bit", metadata !"_ZN11ap_int_baseILi128ELb0ELb0EE3bitEi", metadata !141, i32 3074, metadata !908, i1 false, i1 false, i32 0, i32 0, null, i32 256, i1 false, null, null, i32 0, metadata !153, i32 3074} ; [ DW_TAG_subprogram ]
!913 = metadata !{i32 786478, i32 0, metadata !693, metadata !"bit", metadata !"bit", metadata !"_ZNK11ap_int_baseILi128ELb0ELb0EE3bitEi", metadata !141, i32 3088, metadata !858, i1 false, i1 false, i32 0, i32 0, null, i32 256, i1 false, null, null, i32 0, metadata !153, i32 3088} ; [ DW_TAG_subprogram ]
!914 = metadata !{i32 786478, i32 0, metadata !693, metadata !"and_reduce", metadata !"and_reduce", metadata !"_ZN11ap_int_baseILi128ELb0ELb0EE10and_reduceEv", metadata !141, i32 3268, metadata !915, i1 false, i1 false, i32 0, i32 0, null, i32 256, i1 false, null, null, i32 0, metadata !153, i32 3268} ; [ DW_TAG_subprogram ]
!915 = metadata !{i32 786453, i32 0, metadata !"", i32 0, i32 0, i64 0, i64 0, i64 0, i32 0, null, metadata !916, i32 0, i32 0} ; [ DW_TAG_subroutine_type ]
!916 = metadata !{metadata !164, metadata !709}
!917 = metadata !{i32 786478, i32 0, metadata !693, metadata !"nand_reduce", metadata !"nand_reduce", metadata !"_ZN11ap_int_baseILi128ELb0ELb0EE11nand_reduceEv", metadata !141, i32 3271, metadata !915, i1 false, i1 false, i32 0, i32 0, null, i32 256, i1 false, null, null, i32 0, metadata !153, i32 3271} ; [ DW_TAG_subprogram ]
!918 = metadata !{i32 786478, i32 0, metadata !693, metadata !"or_reduce", metadata !"or_reduce", metadata !"_ZN11ap_int_baseILi128ELb0ELb0EE9or_reduceEv", metadata !141, i32 3274, metadata !915, i1 false, i1 false, i32 0, i32 0, null, i32 256, i1 false, null, null, i32 0, metadata !153, i32 3274} ; [ DW_TAG_subprogram ]
!919 = metadata !{i32 786478, i32 0, metadata !693, metadata !"nor_reduce", metadata !"nor_reduce", metadata !"_ZN11ap_int_baseILi128ELb0ELb0EE10nor_reduceEv", metadata !141, i32 3277, metadata !915, i1 false, i1 false, i32 0, i32 0, null, i32 256, i1 false, null, null, i32 0, metadata !153, i32 3277} ; [ DW_TAG_subprogram ]
!920 = metadata !{i32 786478, i32 0, metadata !693, metadata !"xor_reduce", metadata !"xor_reduce", metadata !"_ZN11ap_int_baseILi128ELb0ELb0EE10xor_reduceEv", metadata !141, i32 3280, metadata !915, i1 false, i1 false, i32 0, i32 0, null, i32 256, i1 false, null, null, i32 0, metadata !153, i32 3280} ; [ DW_TAG_subprogram ]
!921 = metadata !{i32 786478, i32 0, metadata !693, metadata !"xnor_reduce", metadata !"xnor_reduce", metadata !"_ZN11ap_int_baseILi128ELb0ELb0EE11xnor_reduceEv", metadata !141, i32 3283, metadata !915, i1 false, i1 false, i32 0, i32 0, null, i32 256, i1 false, null, null, i32 0, metadata !153, i32 3283} ; [ DW_TAG_subprogram ]
!922 = metadata !{i32 786478, i32 0, metadata !693, metadata !"and_reduce", metadata !"and_reduce", metadata !"_ZNK11ap_int_baseILi128ELb0ELb0EE10and_reduceEv", metadata !141, i32 3287, metadata !817, i1 false, i1 false, i32 0, i32 0, null, i32 256, i1 false, null, null, i32 0, metadata !153, i32 3287} ; [ DW_TAG_subprogram ]
!923 = metadata !{i32 786478, i32 0, metadata !693, metadata !"nand_reduce", metadata !"nand_reduce", metadata !"_ZNK11ap_int_baseILi128ELb0ELb0EE11nand_reduceEv", metadata !141, i32 3290, metadata !817, i1 false, i1 false, i32 0, i32 0, null, i32 256, i1 false, null, null, i32 0, metadata !153, i32 3290} ; [ DW_TAG_subprogram ]
!924 = metadata !{i32 786478, i32 0, metadata !693, metadata !"or_reduce", metadata !"or_reduce", metadata !"_ZNK11ap_int_baseILi128ELb0ELb0EE9or_reduceEv", metadata !141, i32 3293, metadata !817, i1 false, i1 false, i32 0, i32 0, null, i32 256, i1 false, null, null, i32 0, metadata !153, i32 3293} ; [ DW_TAG_subprogram ]
!925 = metadata !{i32 786478, i32 0, metadata !693, metadata !"nor_reduce", metadata !"nor_reduce", metadata !"_ZNK11ap_int_baseILi128ELb0ELb0EE10nor_reduceEv", metadata !141, i32 3296, metadata !817, i1 false, i1 false, i32 0, i32 0, null, i32 256, i1 false, null, null, i32 0, metadata !153, i32 3296} ; [ DW_TAG_subprogram ]
!926 = metadata !{i32 786478, i32 0, metadata !693, metadata !"xor_reduce", metadata !"xor_reduce", metadata !"_ZNK11ap_int_baseILi128ELb0ELb0EE10xor_reduceEv", metadata !141, i32 3299, metadata !817, i1 false, i1 false, i32 0, i32 0, null, i32 256, i1 false, null, null, i32 0, metadata !153, i32 3299} ; [ DW_TAG_subprogram ]
!927 = metadata !{i32 786478, i32 0, metadata !693, metadata !"xnor_reduce", metadata !"xnor_reduce", metadata !"_ZNK11ap_int_baseILi128ELb0ELb0EE11xnor_reduceEv", metadata !141, i32 3302, metadata !817, i1 false, i1 false, i32 0, i32 0, null, i32 256, i1 false, null, null, i32 0, metadata !153, i32 3302} ; [ DW_TAG_subprogram ]
!928 = metadata !{i32 786478, i32 0, metadata !693, metadata !"to_string", metadata !"to_string", metadata !"_ZNK11ap_int_baseILi128ELb0ELb0EE9to_stringEPci8BaseModeb", metadata !141, i32 3309, metadata !929, i1 false, i1 false, i32 0, i32 0, null, i32 256, i1 false, null, null, i32 0, metadata !153, i32 3309} ; [ DW_TAG_subprogram ]
!929 = metadata !{i32 786453, i32 0, metadata !"", i32 0, i32 0, i64 0, i64 0, i64 0, i32 0, null, metadata !930, i32 0, i32 0} ; [ DW_TAG_subroutine_type ]
!930 = metadata !{null, metadata !815, metadata !620, metadata !162, metadata !621, metadata !164}
!931 = metadata !{i32 786478, i32 0, metadata !693, metadata !"to_string", metadata !"to_string", metadata !"_ZNK11ap_int_baseILi128ELb0ELb0EE9to_stringE8BaseModeb", metadata !141, i32 3336, metadata !932, i1 false, i1 false, i32 0, i32 0, null, i32 256, i1 false, null, null, i32 0, metadata !153, i32 3336} ; [ DW_TAG_subprogram ]
!932 = metadata !{i32 786453, i32 0, metadata !"", i32 0, i32 0, i64 0, i64 0, i64 0, i32 0, null, metadata !933, i32 0, i32 0} ; [ DW_TAG_subroutine_type ]
!933 = metadata !{metadata !620, metadata !815, metadata !621, metadata !164}
!934 = metadata !{i32 786478, i32 0, metadata !693, metadata !"to_string", metadata !"to_string", metadata !"_ZNK11ap_int_baseILi128ELb0ELb0EE9to_stringEab", metadata !141, i32 3340, metadata !935, i1 false, i1 false, i32 0, i32 0, null, i32 256, i1 false, null, null, i32 0, metadata !153, i32 3340} ; [ DW_TAG_subprogram ]
!935 = metadata !{i32 786453, i32 0, metadata !"", i32 0, i32 0, i64 0, i64 0, i64 0, i32 0, null, metadata !936, i32 0, i32 0} ; [ DW_TAG_subroutine_type ]
!936 = metadata !{metadata !620, metadata !815, metadata !189, metadata !164}
!937 = metadata !{metadata !901, metadata !163, metadata !891}
!938 = metadata !{i32 786447, i32 0, metadata !"", i32 0, i32 0, i64 64, i64 64, i64 0, i32 64, metadata !679} ; [ DW_TAG_pointer_type ]
!939 = metadata !{i32 786478, i32 0, metadata !670, metadata !"operator unsigned long long", metadata !"operator unsigned long long", metadata !"_ZNK13ap_concat_refILi64E12ap_range_refILi64ELb0EELi64ES1_EcvyEv", metadata !141, i32 770, metadata !940, i1 false, i1 false, i32 0, i32 0, null, i32 256, i1 false, null, null, i32 0, metadata !153, i32 770} ; [ DW_TAG_subprogram ]
!940 = metadata !{i32 786453, i32 0, metadata !"", i32 0, i32 0, i64 0, i64 0, i64 0, i32 0, null, metadata !941, i32 0, i32 0} ; [ DW_TAG_subroutine_type ]
!941 = metadata !{metadata !226, metadata !938}
!942 = metadata !{i32 786478, i32 0, metadata !670, metadata !"operator,<64, false>", metadata !"operator,<64, false>", metadata !"_ZN13ap_concat_refILi64E12ap_range_refILi64ELb0EELi64ES1_EcmILi64ELb0EEES_ILi128ES2_XT_ES0_IXT_EXT0_EEERKS4_", metadata !141, i32 778, metadata !943, i1 false, i1 false, i32 0, i32 0, null, i32 256, i1 false, null, metadata !2585, i32 0, metadata !153, i32 778} ; [ DW_TAG_subprogram ]
!943 = metadata !{i32 786453, i32 0, metadata !"", i32 0, i32 0, i64 0, i64 0, i64 0, i32 0, null, metadata !944, i32 0, i32 0} ; [ DW_TAG_subroutine_type ]
!944 = metadata !{metadata !945, metadata !677, metadata !647}
!945 = metadata !{i32 786434, null, metadata !"ap_concat_ref<128, ap_concat_ref<64, ap_range_ref<64, false>, 64, ap_range_ref<64, false> >, 64, ap_range_ref<64, false> >", metadata !141, i32 688, i64 128, i64 64, i32 0, i32 0, null, metadata !946, i32 0, null, metadata !2635} ; [ DW_TAG_class_type ]
!946 = metadata !{metadata !947, metadata !948, metadata !949, metadata !955, metadata !958, metadata !962, metadata !965, metadata !1211, metadata !1214, metadata !2628, metadata !2629, metadata !2632}
!947 = metadata !{i32 786445, metadata !945, metadata !"mbv1", metadata !141, i32 691, i64 64, i64 64, i64 0, i32 0, metadata !686} ; [ DW_TAG_member ]
!948 = metadata !{i32 786445, metadata !945, metadata !"mbv2", metadata !141, i32 692, i64 64, i64 64, i64 64, i32 0, metadata !663} ; [ DW_TAG_member ]
!949 = metadata !{i32 786478, i32 0, metadata !945, metadata !"ap_concat_ref", metadata !"ap_concat_ref", metadata !"", metadata !141, i32 694, metadata !950, i1 false, i1 false, i32 0, i32 0, null, i32 256, i1 false, null, null, i32 0, metadata !153, i32 694} ; [ DW_TAG_subprogram ]
!950 = metadata !{i32 786453, i32 0, metadata !"", i32 0, i32 0, i64 0, i64 0, i64 0, i32 0, null, metadata !951, i32 0, i32 0} ; [ DW_TAG_subroutine_type ]
!951 = metadata !{null, metadata !952, metadata !953}
!952 = metadata !{i32 786447, i32 0, metadata !"", i32 0, i32 0, i64 64, i64 64, i64 0, i32 64, metadata !945} ; [ DW_TAG_pointer_type ]
!953 = metadata !{i32 786448, null, null, null, i32 0, i64 0, i64 0, i64 0, i32 0, metadata !954} ; [ DW_TAG_reference_type ]
!954 = metadata !{i32 786470, null, metadata !"", null, i32 0, i64 0, i64 0, i64 0, i32 0, metadata !945} ; [ DW_TAG_const_type ]
!955 = metadata !{i32 786478, i32 0, metadata !945, metadata !"ap_concat_ref", metadata !"ap_concat_ref", metadata !"", metadata !141, i32 698, metadata !956, i1 false, i1 false, i32 0, i32 0, null, i32 256, i1 false, null, null, i32 0, metadata !153, i32 698} ; [ DW_TAG_subprogram ]
!956 = metadata !{i32 786453, i32 0, metadata !"", i32 0, i32 0, i64 0, i64 0, i64 0, i32 0, null, metadata !957, i32 0, i32 0} ; [ DW_TAG_subroutine_type ]
!957 = metadata !{null, metadata !952, metadata !686, metadata !663}
!958 = metadata !{i32 786478, i32 0, metadata !945, metadata !"operator=", metadata !"operator=", metadata !"_ZN13ap_concat_refILi128ES_ILi64E12ap_range_refILi64ELb0EELi64ES1_ELi64ES1_EaSEy", metadata !141, i32 715, metadata !959, i1 false, i1 false, i32 0, i32 0, null, i32 256, i1 false, null, null, i32 0, metadata !153, i32 715} ; [ DW_TAG_subprogram ]
!959 = metadata !{i32 786453, i32 0, metadata !"", i32 0, i32 0, i64 0, i64 0, i64 0, i32 0, null, metadata !960, i32 0, i32 0} ; [ DW_TAG_subroutine_type ]
!960 = metadata !{metadata !961, metadata !952, metadata !226}
!961 = metadata !{i32 786448, null, null, null, i32 0, i64 0, i64 0, i64 0, i32 0, metadata !945} ; [ DW_TAG_reference_type ]
!962 = metadata !{i32 786478, i32 0, metadata !945, metadata !"operator=", metadata !"operator=", metadata !"_ZN13ap_concat_refILi128ES_ILi64E12ap_range_refILi64ELb0EELi64ES1_ELi64ES1_EaSERKS3_", metadata !141, i32 731, metadata !963, i1 false, i1 false, i32 0, i32 0, null, i32 256, i1 false, null, null, i32 0, metadata !153, i32 731} ; [ DW_TAG_subprogram ]
!963 = metadata !{i32 786453, i32 0, metadata !"", i32 0, i32 0, i64 0, i64 0, i64 0, i32 0, null, metadata !964, i32 0, i32 0} ; [ DW_TAG_subroutine_type ]
!964 = metadata !{metadata !961, metadata !952, metadata !953}
!965 = metadata !{i32 786478, i32 0, metadata !945, metadata !"operator ap_int_base", metadata !"operator ap_int_base", metadata !"_ZNK13ap_concat_refILi128ES_ILi64E12ap_range_refILi64ELb0EELi64ES1_ELi64ES1_Ecv11ap_int_baseILi192ELb0ELb0EEEv", metadata !141, i32 766, metadata !966, i1 false, i1 false, i32 0, i32 0, null, i32 256, i1 false, null, null, i32 0, metadata !153, i32 766} ; [ DW_TAG_subprogram ]
!966 = metadata !{i32 786453, i32 0, metadata !"", i32 0, i32 0, i64 0, i64 0, i64 0, i32 0, null, metadata !967, i32 0, i32 0} ; [ DW_TAG_subroutine_type ]
!967 = metadata !{metadata !968, metadata !1210}
!968 = metadata !{i32 786434, null, metadata !"ap_int_base<192, false, false>", metadata !141, i32 2398, i64 192, i64 64, i32 0, i32 0, null, metadata !969, i32 0, null, metadata !1209} ; [ DW_TAG_class_type ]
!969 = metadata !{metadata !970, metadata !981, metadata !985, metadata !988, metadata !991, metadata !994, metadata !997, metadata !1000, metadata !1003, metadata !1006, metadata !1009, metadata !1012, metadata !1015, metadata !1018, metadata !1021, metadata !1024, metadata !1027, metadata !1030, metadata !1033, metadata !1038, metadata !1043, metadata !1048, metadata !1049, metadata !1053, metadata !1056, metadata !1059, metadata !1062, metadata !1065, metadata !1068, metadata !1071, metadata !1074, metadata !1077, metadata !1080, metadata !1083, metadata !1086, metadata !1091, metadata !1094, metadata !1095, metadata !1096, metadata !1097, metadata !1098, metadata !1101, metadata !1104, metadata !1107, metadata !1110, metadata !1113, metadata !1116, metadata !1119, metadata !1120, metadata !1124, metadata !1127, metadata !1128, metadata !1129, metadata !1130, metadata !1131, metadata !1132, metadata !1135, metadata !1136, metadata !1139, metadata !1140, metadata !1141, metadata !1142, metadata !1143, metadata !1144, metadata !1147, metadata !1148, metadata !1149, metadata !1152, metadata !1153, metadata !1156, metadata !1164, metadata !1165, metadata !1168, metadata !1174, metadata !1175, metadata !1178, metadata !1179, metadata !1183, metadata !1184, metadata !1185, metadata !1186, metadata !1189, metadata !1190, metadata !1191, metadata !1192, metadata !1193, metadata !1194, metadata !1195, metadata !1196, metadata !1197, metadata !1198, metadata !1199, metadata !1200, metadata !1203, metadata !1206}
!970 = metadata !{i32 786460, metadata !968, null, metadata !141, i32 0, i64 0, i64 0, i64 0, i32 0, metadata !971} ; [ DW_TAG_inheritance ]
!971 = metadata !{i32 786434, null, metadata !"ssdm_int<192 + 1024 * 0, false>", metadata !145, i32 206, i64 192, i64 64, i32 0, i32 0, null, metadata !972, i32 0, null, metadata !979} ; [ DW_TAG_class_type ]
!972 = metadata !{metadata !973, metadata !975}
!973 = metadata !{i32 786445, metadata !971, metadata !"V", metadata !145, i32 206, i64 192, i64 64, i64 0, i32 0, metadata !974} ; [ DW_TAG_member ]
!974 = metadata !{i32 786468, null, metadata !"uint192", null, i32 0, i64 192, i64 64, i64 0, i32 0, i32 7} ; [ DW_TAG_base_type ]
!975 = metadata !{i32 786478, i32 0, metadata !971, metadata !"ssdm_int", metadata !"ssdm_int", metadata !"", metadata !145, i32 206, metadata !976, i1 false, i1 false, i32 0, i32 0, null, i32 256, i1 false, null, null, i32 0, metadata !153, i32 206} ; [ DW_TAG_subprogram ]
!976 = metadata !{i32 786453, i32 0, metadata !"", i32 0, i32 0, i64 0, i64 0, i64 0, i32 0, null, metadata !977, i32 0, i32 0} ; [ DW_TAG_subroutine_type ]
!977 = metadata !{null, metadata !978}
!978 = metadata !{i32 786447, i32 0, metadata !"", i32 0, i32 0, i64 64, i64 64, i64 0, i32 64, metadata !971} ; [ DW_TAG_pointer_type ]
!979 = metadata !{metadata !980, metadata !163}
!980 = metadata !{i32 786480, null, metadata !"_AP_N", metadata !162, i64 192, null, i32 0, i32 0} ; [ DW_TAG_template_value_parameter ]
!981 = metadata !{i32 786478, i32 0, metadata !968, metadata !"ap_int_base", metadata !"ap_int_base", metadata !"", metadata !141, i32 2436, metadata !982, i1 false, i1 false, i32 0, i32 0, null, i32 256, i1 false, null, null, i32 0, metadata !153, i32 2436} ; [ DW_TAG_subprogram ]
!982 = metadata !{i32 786453, i32 0, metadata !"", i32 0, i32 0, i64 0, i64 0, i64 0, i32 0, null, metadata !983, i32 0, i32 0} ; [ DW_TAG_subroutine_type ]
!983 = metadata !{null, metadata !984}
!984 = metadata !{i32 786447, i32 0, metadata !"", i32 0, i32 0, i64 64, i64 64, i64 0, i32 64, metadata !968} ; [ DW_TAG_pointer_type ]
!985 = metadata !{i32 786478, i32 0, metadata !968, metadata !"ap_int_base", metadata !"ap_int_base", metadata !"", metadata !141, i32 2458, metadata !986, i1 false, i1 false, i32 0, i32 0, null, i32 384, i1 false, null, null, i32 0, metadata !153, i32 2458} ; [ DW_TAG_subprogram ]
!986 = metadata !{i32 786453, i32 0, metadata !"", i32 0, i32 0, i64 0, i64 0, i64 0, i32 0, null, metadata !987, i32 0, i32 0} ; [ DW_TAG_subroutine_type ]
!987 = metadata !{null, metadata !984, metadata !164}
!988 = metadata !{i32 786478, i32 0, metadata !968, metadata !"ap_int_base", metadata !"ap_int_base", metadata !"", metadata !141, i32 2459, metadata !989, i1 false, i1 false, i32 0, i32 0, null, i32 384, i1 false, null, null, i32 0, metadata !153, i32 2459} ; [ DW_TAG_subprogram ]
!989 = metadata !{i32 786453, i32 0, metadata !"", i32 0, i32 0, i64 0, i64 0, i64 0, i32 0, null, metadata !990, i32 0, i32 0} ; [ DW_TAG_subroutine_type ]
!990 = metadata !{null, metadata !984, metadata !189}
!991 = metadata !{i32 786478, i32 0, metadata !968, metadata !"ap_int_base", metadata !"ap_int_base", metadata !"", metadata !141, i32 2460, metadata !992, i1 false, i1 false, i32 0, i32 0, null, i32 384, i1 false, null, null, i32 0, metadata !153, i32 2460} ; [ DW_TAG_subprogram ]
!992 = metadata !{i32 786453, i32 0, metadata !"", i32 0, i32 0, i64 0, i64 0, i64 0, i32 0, null, metadata !993, i32 0, i32 0} ; [ DW_TAG_subroutine_type ]
!993 = metadata !{null, metadata !984, metadata !193}
!994 = metadata !{i32 786478, i32 0, metadata !968, metadata !"ap_int_base", metadata !"ap_int_base", metadata !"", metadata !141, i32 2461, metadata !995, i1 false, i1 false, i32 0, i32 0, null, i32 384, i1 false, null, null, i32 0, metadata !153, i32 2461} ; [ DW_TAG_subprogram ]
!995 = metadata !{i32 786453, i32 0, metadata !"", i32 0, i32 0, i64 0, i64 0, i64 0, i32 0, null, metadata !996, i32 0, i32 0} ; [ DW_TAG_subroutine_type ]
!996 = metadata !{null, metadata !984, metadata !197}
!997 = metadata !{i32 786478, i32 0, metadata !968, metadata !"ap_int_base", metadata !"ap_int_base", metadata !"", metadata !141, i32 2462, metadata !998, i1 false, i1 false, i32 0, i32 0, null, i32 384, i1 false, null, null, i32 0, metadata !153, i32 2462} ; [ DW_TAG_subprogram ]
!998 = metadata !{i32 786453, i32 0, metadata !"", i32 0, i32 0, i64 0, i64 0, i64 0, i32 0, null, metadata !999, i32 0, i32 0} ; [ DW_TAG_subroutine_type ]
!999 = metadata !{null, metadata !984, metadata !201}
!1000 = metadata !{i32 786478, i32 0, metadata !968, metadata !"ap_int_base", metadata !"ap_int_base", metadata !"", metadata !141, i32 2463, metadata !1001, i1 false, i1 false, i32 0, i32 0, null, i32 384, i1 false, null, null, i32 0, metadata !153, i32 2463} ; [ DW_TAG_subprogram ]
!1001 = metadata !{i32 786453, i32 0, metadata !"", i32 0, i32 0, i64 0, i64 0, i64 0, i32 0, null, metadata !1002, i32 0, i32 0} ; [ DW_TAG_subroutine_type ]
!1002 = metadata !{null, metadata !984, metadata !162}
!1003 = metadata !{i32 786478, i32 0, metadata !968, metadata !"ap_int_base", metadata !"ap_int_base", metadata !"", metadata !141, i32 2464, metadata !1004, i1 false, i1 false, i32 0, i32 0, null, i32 384, i1 false, null, null, i32 0, metadata !153, i32 2464} ; [ DW_TAG_subprogram ]
!1004 = metadata !{i32 786453, i32 0, metadata !"", i32 0, i32 0, i64 0, i64 0, i64 0, i32 0, null, metadata !1005, i32 0, i32 0} ; [ DW_TAG_subroutine_type ]
!1005 = metadata !{null, metadata !984, metadata !208}
!1006 = metadata !{i32 786478, i32 0, metadata !968, metadata !"ap_int_base", metadata !"ap_int_base", metadata !"", metadata !141, i32 2465, metadata !1007, i1 false, i1 false, i32 0, i32 0, null, i32 384, i1 false, null, null, i32 0, metadata !153, i32 2465} ; [ DW_TAG_subprogram ]
!1007 = metadata !{i32 786453, i32 0, metadata !"", i32 0, i32 0, i64 0, i64 0, i64 0, i32 0, null, metadata !1008, i32 0, i32 0} ; [ DW_TAG_subroutine_type ]
!1008 = metadata !{null, metadata !984, metadata !212}
!1009 = metadata !{i32 786478, i32 0, metadata !968, metadata !"ap_int_base", metadata !"ap_int_base", metadata !"", metadata !141, i32 2466, metadata !1010, i1 false, i1 false, i32 0, i32 0, null, i32 384, i1 false, null, null, i32 0, metadata !153, i32 2466} ; [ DW_TAG_subprogram ]
!1010 = metadata !{i32 786453, i32 0, metadata !"", i32 0, i32 0, i64 0, i64 0, i64 0, i32 0, null, metadata !1011, i32 0, i32 0} ; [ DW_TAG_subroutine_type ]
!1011 = metadata !{null, metadata !984, metadata !216}
!1012 = metadata !{i32 786478, i32 0, metadata !968, metadata !"ap_int_base", metadata !"ap_int_base", metadata !"", metadata !141, i32 2467, metadata !1013, i1 false, i1 false, i32 0, i32 0, null, i32 384, i1 false, null, null, i32 0, metadata !153, i32 2467} ; [ DW_TAG_subprogram ]
!1013 = metadata !{i32 786453, i32 0, metadata !"", i32 0, i32 0, i64 0, i64 0, i64 0, i32 0, null, metadata !1014, i32 0, i32 0} ; [ DW_TAG_subroutine_type ]
!1014 = metadata !{null, metadata !984, metadata !220}
!1015 = metadata !{i32 786478, i32 0, metadata !968, metadata !"ap_int_base", metadata !"ap_int_base", metadata !"", metadata !141, i32 2468, metadata !1016, i1 false, i1 false, i32 0, i32 0, null, i32 384, i1 false, null, null, i32 0, metadata !153, i32 2468} ; [ DW_TAG_subprogram ]
!1016 = metadata !{i32 786453, i32 0, metadata !"", i32 0, i32 0, i64 0, i64 0, i64 0, i32 0, null, metadata !1017, i32 0, i32 0} ; [ DW_TAG_subroutine_type ]
!1017 = metadata !{null, metadata !984, metadata !225}
!1018 = metadata !{i32 786478, i32 0, metadata !968, metadata !"ap_int_base", metadata !"ap_int_base", metadata !"", metadata !141, i32 2469, metadata !1019, i1 false, i1 false, i32 0, i32 0, null, i32 384, i1 false, null, null, i32 0, metadata !153, i32 2469} ; [ DW_TAG_subprogram ]
!1019 = metadata !{i32 786453, i32 0, metadata !"", i32 0, i32 0, i64 0, i64 0, i64 0, i32 0, null, metadata !1020, i32 0, i32 0} ; [ DW_TAG_subroutine_type ]
!1020 = metadata !{null, metadata !984, metadata !230}
!1021 = metadata !{i32 786478, i32 0, metadata !968, metadata !"ap_int_base", metadata !"ap_int_base", metadata !"", metadata !141, i32 2470, metadata !1022, i1 false, i1 false, i32 0, i32 0, null, i32 384, i1 false, null, null, i32 0, metadata !153, i32 2470} ; [ DW_TAG_subprogram ]
!1022 = metadata !{i32 786453, i32 0, metadata !"", i32 0, i32 0, i64 0, i64 0, i64 0, i32 0, null, metadata !1023, i32 0, i32 0} ; [ DW_TAG_subroutine_type ]
!1023 = metadata !{null, metadata !984, metadata !235}
!1024 = metadata !{i32 786478, i32 0, metadata !968, metadata !"ap_int_base", metadata !"ap_int_base", metadata !"", metadata !141, i32 2471, metadata !1025, i1 false, i1 false, i32 0, i32 0, null, i32 384, i1 false, null, null, i32 0, metadata !153, i32 2471} ; [ DW_TAG_subprogram ]
!1025 = metadata !{i32 786453, i32 0, metadata !"", i32 0, i32 0, i64 0, i64 0, i64 0, i32 0, null, metadata !1026, i32 0, i32 0} ; [ DW_TAG_subroutine_type ]
!1026 = metadata !{null, metadata !984, metadata !239}
!1027 = metadata !{i32 786478, i32 0, metadata !968, metadata !"ap_int_base", metadata !"ap_int_base", metadata !"", metadata !141, i32 2498, metadata !1028, i1 false, i1 false, i32 0, i32 0, null, i32 256, i1 false, null, null, i32 0, metadata !153, i32 2498} ; [ DW_TAG_subprogram ]
!1028 = metadata !{i32 786453, i32 0, metadata !"", i32 0, i32 0, i64 0, i64 0, i64 0, i32 0, null, metadata !1029, i32 0, i32 0} ; [ DW_TAG_subroutine_type ]
!1029 = metadata !{null, metadata !984, metadata !243}
!1030 = metadata !{i32 786478, i32 0, metadata !968, metadata !"ap_int_base", metadata !"ap_int_base", metadata !"", metadata !141, i32 2505, metadata !1031, i1 false, i1 false, i32 0, i32 0, null, i32 256, i1 false, null, null, i32 0, metadata !153, i32 2505} ; [ DW_TAG_subprogram ]
!1031 = metadata !{i32 786453, i32 0, metadata !"", i32 0, i32 0, i64 0, i64 0, i64 0, i32 0, null, metadata !1032, i32 0, i32 0} ; [ DW_TAG_subroutine_type ]
!1032 = metadata !{null, metadata !984, metadata !243, metadata !189}
!1033 = metadata !{i32 786478, i32 0, metadata !968, metadata !"read", metadata !"read", metadata !"_ZNV11ap_int_baseILi192ELb0ELb0EE4readEv", metadata !141, i32 2526, metadata !1034, i1 false, i1 false, i32 0, i32 0, null, i32 256, i1 false, null, null, i32 0, metadata !153, i32 2526} ; [ DW_TAG_subprogram ]
!1034 = metadata !{i32 786453, i32 0, metadata !"", i32 0, i32 0, i64 0, i64 0, i64 0, i32 0, null, metadata !1035, i32 0, i32 0} ; [ DW_TAG_subroutine_type ]
!1035 = metadata !{metadata !968, metadata !1036}
!1036 = metadata !{i32 786447, i32 0, metadata !"", i32 0, i32 0, i64 64, i64 64, i64 0, i32 64, metadata !1037} ; [ DW_TAG_pointer_type ]
!1037 = metadata !{i32 786485, null, metadata !"", null, i32 0, i64 0, i64 0, i64 0, i32 0, metadata !968} ; [ DW_TAG_volatile_type ]
!1038 = metadata !{i32 786478, i32 0, metadata !968, metadata !"write", metadata !"write", metadata !"_ZNV11ap_int_baseILi192ELb0ELb0EE5writeERKS0_", metadata !141, i32 2532, metadata !1039, i1 false, i1 false, i32 0, i32 0, null, i32 256, i1 false, null, null, i32 0, metadata !153, i32 2532} ; [ DW_TAG_subprogram ]
!1039 = metadata !{i32 786453, i32 0, metadata !"", i32 0, i32 0, i64 0, i64 0, i64 0, i32 0, null, metadata !1040, i32 0, i32 0} ; [ DW_TAG_subroutine_type ]
!1040 = metadata !{null, metadata !1036, metadata !1041}
!1041 = metadata !{i32 786448, null, null, null, i32 0, i64 0, i64 0, i64 0, i32 0, metadata !1042} ; [ DW_TAG_reference_type ]
!1042 = metadata !{i32 786470, null, metadata !"", null, i32 0, i64 0, i64 0, i64 0, i32 0, metadata !968} ; [ DW_TAG_const_type ]
!1043 = metadata !{i32 786478, i32 0, metadata !968, metadata !"operator=", metadata !"operator=", metadata !"_ZNV11ap_int_baseILi192ELb0ELb0EEaSERVKS0_", metadata !141, i32 2544, metadata !1044, i1 false, i1 false, i32 0, i32 0, null, i32 256, i1 false, null, null, i32 0, metadata !153, i32 2544} ; [ DW_TAG_subprogram ]
!1044 = metadata !{i32 786453, i32 0, metadata !"", i32 0, i32 0, i64 0, i64 0, i64 0, i32 0, null, metadata !1045, i32 0, i32 0} ; [ DW_TAG_subroutine_type ]
!1045 = metadata !{null, metadata !1036, metadata !1046}
!1046 = metadata !{i32 786448, null, null, null, i32 0, i64 0, i64 0, i64 0, i32 0, metadata !1047} ; [ DW_TAG_reference_type ]
!1047 = metadata !{i32 786470, null, metadata !"", null, i32 0, i64 0, i64 0, i64 0, i32 0, metadata !1037} ; [ DW_TAG_const_type ]
!1048 = metadata !{i32 786478, i32 0, metadata !968, metadata !"operator=", metadata !"operator=", metadata !"_ZNV11ap_int_baseILi192ELb0ELb0EEaSERKS0_", metadata !141, i32 2553, metadata !1039, i1 false, i1 false, i32 0, i32 0, null, i32 256, i1 false, null, null, i32 0, metadata !153, i32 2553} ; [ DW_TAG_subprogram ]
!1049 = metadata !{i32 786478, i32 0, metadata !968, metadata !"operator=", metadata !"operator=", metadata !"_ZN11ap_int_baseILi192ELb0ELb0EEaSERVKS0_", metadata !141, i32 2576, metadata !1050, i1 false, i1 false, i32 0, i32 0, null, i32 256, i1 false, null, null, i32 0, metadata !153, i32 2576} ; [ DW_TAG_subprogram ]
!1050 = metadata !{i32 786453, i32 0, metadata !"", i32 0, i32 0, i64 0, i64 0, i64 0, i32 0, null, metadata !1051, i32 0, i32 0} ; [ DW_TAG_subroutine_type ]
!1051 = metadata !{metadata !1052, metadata !984, metadata !1046}
!1052 = metadata !{i32 786448, null, null, null, i32 0, i64 0, i64 0, i64 0, i32 0, metadata !968} ; [ DW_TAG_reference_type ]
!1053 = metadata !{i32 786478, i32 0, metadata !968, metadata !"operator=", metadata !"operator=", metadata !"_ZN11ap_int_baseILi192ELb0ELb0EEaSERKS0_", metadata !141, i32 2581, metadata !1054, i1 false, i1 false, i32 0, i32 0, null, i32 256, i1 false, null, null, i32 0, metadata !153, i32 2581} ; [ DW_TAG_subprogram ]
!1054 = metadata !{i32 786453, i32 0, metadata !"", i32 0, i32 0, i64 0, i64 0, i64 0, i32 0, null, metadata !1055, i32 0, i32 0} ; [ DW_TAG_subroutine_type ]
!1055 = metadata !{metadata !1052, metadata !984, metadata !1041}
!1056 = metadata !{i32 786478, i32 0, metadata !968, metadata !"operator=", metadata !"operator=", metadata !"_ZN11ap_int_baseILi192ELb0ELb0EEaSEPKc", metadata !141, i32 2585, metadata !1057, i1 false, i1 false, i32 0, i32 0, null, i32 256, i1 false, null, null, i32 0, metadata !153, i32 2585} ; [ DW_TAG_subprogram ]
!1057 = metadata !{i32 786453, i32 0, metadata !"", i32 0, i32 0, i64 0, i64 0, i64 0, i32 0, null, metadata !1058, i32 0, i32 0} ; [ DW_TAG_subroutine_type ]
!1058 = metadata !{metadata !1052, metadata !984, metadata !243}
!1059 = metadata !{i32 786478, i32 0, metadata !968, metadata !"set", metadata !"set", metadata !"_ZN11ap_int_baseILi192ELb0ELb0EE3setEPKca", metadata !141, i32 2593, metadata !1060, i1 false, i1 false, i32 0, i32 0, null, i32 256, i1 false, null, null, i32 0, metadata !153, i32 2593} ; [ DW_TAG_subprogram ]
!1060 = metadata !{i32 786453, i32 0, metadata !"", i32 0, i32 0, i64 0, i64 0, i64 0, i32 0, null, metadata !1061, i32 0, i32 0} ; [ DW_TAG_subroutine_type ]
!1061 = metadata !{metadata !1052, metadata !984, metadata !243, metadata !189}
!1062 = metadata !{i32 786478, i32 0, metadata !968, metadata !"operator=", metadata !"operator=", metadata !"_ZN11ap_int_baseILi192ELb0ELb0EEaSEc", metadata !141, i32 2607, metadata !1063, i1 false, i1 false, i32 0, i32 0, null, i32 256, i1 false, null, null, i32 0, metadata !153, i32 2607} ; [ DW_TAG_subprogram ]
!1063 = metadata !{i32 786453, i32 0, metadata !"", i32 0, i32 0, i64 0, i64 0, i64 0, i32 0, null, metadata !1064, i32 0, i32 0} ; [ DW_TAG_subroutine_type ]
!1064 = metadata !{metadata !1052, metadata !984, metadata !245}
!1065 = metadata !{i32 786478, i32 0, metadata !968, metadata !"operator=", metadata !"operator=", metadata !"_ZN11ap_int_baseILi192ELb0ELb0EEaSEh", metadata !141, i32 2608, metadata !1066, i1 false, i1 false, i32 0, i32 0, null, i32 256, i1 false, null, null, i32 0, metadata !153, i32 2608} ; [ DW_TAG_subprogram ]
!1066 = metadata !{i32 786453, i32 0, metadata !"", i32 0, i32 0, i64 0, i64 0, i64 0, i32 0, null, metadata !1067, i32 0, i32 0} ; [ DW_TAG_subroutine_type ]
!1067 = metadata !{metadata !1052, metadata !984, metadata !193}
!1068 = metadata !{i32 786478, i32 0, metadata !968, metadata !"operator=", metadata !"operator=", metadata !"_ZN11ap_int_baseILi192ELb0ELb0EEaSEs", metadata !141, i32 2609, metadata !1069, i1 false, i1 false, i32 0, i32 0, null, i32 256, i1 false, null, null, i32 0, metadata !153, i32 2609} ; [ DW_TAG_subprogram ]
!1069 = metadata !{i32 786453, i32 0, metadata !"", i32 0, i32 0, i64 0, i64 0, i64 0, i32 0, null, metadata !1070, i32 0, i32 0} ; [ DW_TAG_subroutine_type ]
!1070 = metadata !{metadata !1052, metadata !984, metadata !197}
!1071 = metadata !{i32 786478, i32 0, metadata !968, metadata !"operator=", metadata !"operator=", metadata !"_ZN11ap_int_baseILi192ELb0ELb0EEaSEt", metadata !141, i32 2610, metadata !1072, i1 false, i1 false, i32 0, i32 0, null, i32 256, i1 false, null, null, i32 0, metadata !153, i32 2610} ; [ DW_TAG_subprogram ]
!1072 = metadata !{i32 786453, i32 0, metadata !"", i32 0, i32 0, i64 0, i64 0, i64 0, i32 0, null, metadata !1073, i32 0, i32 0} ; [ DW_TAG_subroutine_type ]
!1073 = metadata !{metadata !1052, metadata !984, metadata !201}
!1074 = metadata !{i32 786478, i32 0, metadata !968, metadata !"operator=", metadata !"operator=", metadata !"_ZN11ap_int_baseILi192ELb0ELb0EEaSEi", metadata !141, i32 2611, metadata !1075, i1 false, i1 false, i32 0, i32 0, null, i32 256, i1 false, null, null, i32 0, metadata !153, i32 2611} ; [ DW_TAG_subprogram ]
!1075 = metadata !{i32 786453, i32 0, metadata !"", i32 0, i32 0, i64 0, i64 0, i64 0, i32 0, null, metadata !1076, i32 0, i32 0} ; [ DW_TAG_subroutine_type ]
!1076 = metadata !{metadata !1052, metadata !984, metadata !162}
!1077 = metadata !{i32 786478, i32 0, metadata !968, metadata !"operator=", metadata !"operator=", metadata !"_ZN11ap_int_baseILi192ELb0ELb0EEaSEj", metadata !141, i32 2612, metadata !1078, i1 false, i1 false, i32 0, i32 0, null, i32 256, i1 false, null, null, i32 0, metadata !153, i32 2612} ; [ DW_TAG_subprogram ]
!1078 = metadata !{i32 786453, i32 0, metadata !"", i32 0, i32 0, i64 0, i64 0, i64 0, i32 0, null, metadata !1079, i32 0, i32 0} ; [ DW_TAG_subroutine_type ]
!1079 = metadata !{metadata !1052, metadata !984, metadata !208}
!1080 = metadata !{i32 786478, i32 0, metadata !968, metadata !"operator=", metadata !"operator=", metadata !"_ZN11ap_int_baseILi192ELb0ELb0EEaSEx", metadata !141, i32 2613, metadata !1081, i1 false, i1 false, i32 0, i32 0, null, i32 256, i1 false, null, null, i32 0, metadata !153, i32 2613} ; [ DW_TAG_subprogram ]
!1081 = metadata !{i32 786453, i32 0, metadata !"", i32 0, i32 0, i64 0, i64 0, i64 0, i32 0, null, metadata !1082, i32 0, i32 0} ; [ DW_TAG_subroutine_type ]
!1082 = metadata !{metadata !1052, metadata !984, metadata !220}
!1083 = metadata !{i32 786478, i32 0, metadata !968, metadata !"operator=", metadata !"operator=", metadata !"_ZN11ap_int_baseILi192ELb0ELb0EEaSEy", metadata !141, i32 2614, metadata !1084, i1 false, i1 false, i32 0, i32 0, null, i32 256, i1 false, null, null, i32 0, metadata !153, i32 2614} ; [ DW_TAG_subprogram ]
!1084 = metadata !{i32 786453, i32 0, metadata !"", i32 0, i32 0, i64 0, i64 0, i64 0, i32 0, null, metadata !1085, i32 0, i32 0} ; [ DW_TAG_subroutine_type ]
!1085 = metadata !{metadata !1052, metadata !984, metadata !225}
!1086 = metadata !{i32 786478, i32 0, metadata !968, metadata !"operator unsigned long long", metadata !"operator unsigned long long", metadata !"_ZNK11ap_int_baseILi192ELb0ELb0EEcvyEv", metadata !141, i32 2653, metadata !1087, i1 false, i1 false, i32 0, i32 0, null, i32 256, i1 false, null, null, i32 0, metadata !153, i32 2653} ; [ DW_TAG_subprogram ]
!1087 = metadata !{i32 786453, i32 0, metadata !"", i32 0, i32 0, i64 0, i64 0, i64 0, i32 0, null, metadata !1088, i32 0, i32 0} ; [ DW_TAG_subroutine_type ]
!1088 = metadata !{metadata !1089, metadata !1090}
!1089 = metadata !{i32 786454, metadata !968, metadata !"RetType", metadata !141, i32 2402, i64 0, i64 0, i64 0, i32 0, metadata !301} ; [ DW_TAG_typedef ]
!1090 = metadata !{i32 786447, i32 0, metadata !"", i32 0, i32 0, i64 64, i64 64, i64 0, i32 64, metadata !1042} ; [ DW_TAG_pointer_type ]
!1091 = metadata !{i32 786478, i32 0, metadata !968, metadata !"to_bool", metadata !"to_bool", metadata !"_ZNK11ap_int_baseILi192ELb0ELb0EE7to_boolEv", metadata !141, i32 2659, metadata !1092, i1 false, i1 false, i32 0, i32 0, null, i32 256, i1 false, null, null, i32 0, metadata !153, i32 2659} ; [ DW_TAG_subprogram ]
!1092 = metadata !{i32 786453, i32 0, metadata !"", i32 0, i32 0, i64 0, i64 0, i64 0, i32 0, null, metadata !1093, i32 0, i32 0} ; [ DW_TAG_subroutine_type ]
!1093 = metadata !{metadata !164, metadata !1090}
!1094 = metadata !{i32 786478, i32 0, metadata !968, metadata !"to_uchar", metadata !"to_uchar", metadata !"_ZNK11ap_int_baseILi192ELb0ELb0EE8to_ucharEv", metadata !141, i32 2660, metadata !1092, i1 false, i1 false, i32 0, i32 0, null, i32 256, i1 false, null, null, i32 0, metadata !153, i32 2660} ; [ DW_TAG_subprogram ]
!1095 = metadata !{i32 786478, i32 0, metadata !968, metadata !"to_char", metadata !"to_char", metadata !"_ZNK11ap_int_baseILi192ELb0ELb0EE7to_charEv", metadata !141, i32 2661, metadata !1092, i1 false, i1 false, i32 0, i32 0, null, i32 256, i1 false, null, null, i32 0, metadata !153, i32 2661} ; [ DW_TAG_subprogram ]
!1096 = metadata !{i32 786478, i32 0, metadata !968, metadata !"to_ushort", metadata !"to_ushort", metadata !"_ZNK11ap_int_baseILi192ELb0ELb0EE9to_ushortEv", metadata !141, i32 2662, metadata !1092, i1 false, i1 false, i32 0, i32 0, null, i32 256, i1 false, null, null, i32 0, metadata !153, i32 2662} ; [ DW_TAG_subprogram ]
!1097 = metadata !{i32 786478, i32 0, metadata !968, metadata !"to_short", metadata !"to_short", metadata !"_ZNK11ap_int_baseILi192ELb0ELb0EE8to_shortEv", metadata !141, i32 2663, metadata !1092, i1 false, i1 false, i32 0, i32 0, null, i32 256, i1 false, null, null, i32 0, metadata !153, i32 2663} ; [ DW_TAG_subprogram ]
!1098 = metadata !{i32 786478, i32 0, metadata !968, metadata !"to_int", metadata !"to_int", metadata !"_ZNK11ap_int_baseILi192ELb0ELb0EE6to_intEv", metadata !141, i32 2664, metadata !1099, i1 false, i1 false, i32 0, i32 0, null, i32 256, i1 false, null, null, i32 0, metadata !153, i32 2664} ; [ DW_TAG_subprogram ]
!1099 = metadata !{i32 786453, i32 0, metadata !"", i32 0, i32 0, i64 0, i64 0, i64 0, i32 0, null, metadata !1100, i32 0, i32 0} ; [ DW_TAG_subroutine_type ]
!1100 = metadata !{metadata !162, metadata !1090}
!1101 = metadata !{i32 786478, i32 0, metadata !968, metadata !"to_uint", metadata !"to_uint", metadata !"_ZNK11ap_int_baseILi192ELb0ELb0EE7to_uintEv", metadata !141, i32 2665, metadata !1102, i1 false, i1 false, i32 0, i32 0, null, i32 256, i1 false, null, null, i32 0, metadata !153, i32 2665} ; [ DW_TAG_subprogram ]
!1102 = metadata !{i32 786453, i32 0, metadata !"", i32 0, i32 0, i64 0, i64 0, i64 0, i32 0, null, metadata !1103, i32 0, i32 0} ; [ DW_TAG_subroutine_type ]
!1103 = metadata !{metadata !208, metadata !1090}
!1104 = metadata !{i32 786478, i32 0, metadata !968, metadata !"to_long", metadata !"to_long", metadata !"_ZNK11ap_int_baseILi192ELb0ELb0EE7to_longEv", metadata !141, i32 2666, metadata !1105, i1 false, i1 false, i32 0, i32 0, null, i32 256, i1 false, null, null, i32 0, metadata !153, i32 2666} ; [ DW_TAG_subprogram ]
!1105 = metadata !{i32 786453, i32 0, metadata !"", i32 0, i32 0, i64 0, i64 0, i64 0, i32 0, null, metadata !1106, i32 0, i32 0} ; [ DW_TAG_subroutine_type ]
!1106 = metadata !{metadata !212, metadata !1090}
!1107 = metadata !{i32 786478, i32 0, metadata !968, metadata !"to_ulong", metadata !"to_ulong", metadata !"_ZNK11ap_int_baseILi192ELb0ELb0EE8to_ulongEv", metadata !141, i32 2667, metadata !1108, i1 false, i1 false, i32 0, i32 0, null, i32 256, i1 false, null, null, i32 0, metadata !153, i32 2667} ; [ DW_TAG_subprogram ]
!1108 = metadata !{i32 786453, i32 0, metadata !"", i32 0, i32 0, i64 0, i64 0, i64 0, i32 0, null, metadata !1109, i32 0, i32 0} ; [ DW_TAG_subroutine_type ]
!1109 = metadata !{metadata !216, metadata !1090}
!1110 = metadata !{i32 786478, i32 0, metadata !968, metadata !"to_int64", metadata !"to_int64", metadata !"_ZNK11ap_int_baseILi192ELb0ELb0EE8to_int64Ev", metadata !141, i32 2668, metadata !1111, i1 false, i1 false, i32 0, i32 0, null, i32 256, i1 false, null, null, i32 0, metadata !153, i32 2668} ; [ DW_TAG_subprogram ]
!1111 = metadata !{i32 786453, i32 0, metadata !"", i32 0, i32 0, i64 0, i64 0, i64 0, i32 0, null, metadata !1112, i32 0, i32 0} ; [ DW_TAG_subroutine_type ]
!1112 = metadata !{metadata !220, metadata !1090}
!1113 = metadata !{i32 786478, i32 0, metadata !968, metadata !"to_uint64", metadata !"to_uint64", metadata !"_ZNK11ap_int_baseILi192ELb0ELb0EE9to_uint64Ev", metadata !141, i32 2669, metadata !1114, i1 false, i1 false, i32 0, i32 0, null, i32 256, i1 false, null, null, i32 0, metadata !153, i32 2669} ; [ DW_TAG_subprogram ]
!1114 = metadata !{i32 786453, i32 0, metadata !"", i32 0, i32 0, i64 0, i64 0, i64 0, i32 0, null, metadata !1115, i32 0, i32 0} ; [ DW_TAG_subroutine_type ]
!1115 = metadata !{metadata !225, metadata !1090}
!1116 = metadata !{i32 786478, i32 0, metadata !968, metadata !"to_double", metadata !"to_double", metadata !"_ZNK11ap_int_baseILi192ELb0ELb0EE9to_doubleEv", metadata !141, i32 2670, metadata !1117, i1 false, i1 false, i32 0, i32 0, null, i32 256, i1 false, null, null, i32 0, metadata !153, i32 2670} ; [ DW_TAG_subprogram ]
!1117 = metadata !{i32 786453, i32 0, metadata !"", i32 0, i32 0, i64 0, i64 0, i64 0, i32 0, null, metadata !1118, i32 0, i32 0} ; [ DW_TAG_subroutine_type ]
!1118 = metadata !{metadata !239, metadata !1090}
!1119 = metadata !{i32 786478, i32 0, metadata !968, metadata !"length", metadata !"length", metadata !"_ZNK11ap_int_baseILi192ELb0ELb0EE6lengthEv", metadata !141, i32 2683, metadata !1099, i1 false, i1 false, i32 0, i32 0, null, i32 256, i1 false, null, null, i32 0, metadata !153, i32 2683} ; [ DW_TAG_subprogram ]
!1120 = metadata !{i32 786478, i32 0, metadata !968, metadata !"length", metadata !"length", metadata !"_ZNVK11ap_int_baseILi192ELb0ELb0EE6lengthEv", metadata !141, i32 2684, metadata !1121, i1 false, i1 false, i32 0, i32 0, null, i32 256, i1 false, null, null, i32 0, metadata !153, i32 2684} ; [ DW_TAG_subprogram ]
!1121 = metadata !{i32 786453, i32 0, metadata !"", i32 0, i32 0, i64 0, i64 0, i64 0, i32 0, null, metadata !1122, i32 0, i32 0} ; [ DW_TAG_subroutine_type ]
!1122 = metadata !{metadata !162, metadata !1123}
!1123 = metadata !{i32 786447, i32 0, metadata !"", i32 0, i32 0, i64 64, i64 64, i64 0, i32 64, metadata !1047} ; [ DW_TAG_pointer_type ]
!1124 = metadata !{i32 786478, i32 0, metadata !968, metadata !"reverse", metadata !"reverse", metadata !"_ZN11ap_int_baseILi192ELb0ELb0EE7reverseEv", metadata !141, i32 2689, metadata !1125, i1 false, i1 false, i32 0, i32 0, null, i32 256, i1 false, null, null, i32 0, metadata !153, i32 2689} ; [ DW_TAG_subprogram ]
!1125 = metadata !{i32 786453, i32 0, metadata !"", i32 0, i32 0, i64 0, i64 0, i64 0, i32 0, null, metadata !1126, i32 0, i32 0} ; [ DW_TAG_subroutine_type ]
!1126 = metadata !{metadata !1052, metadata !984}
!1127 = metadata !{i32 786478, i32 0, metadata !968, metadata !"iszero", metadata !"iszero", metadata !"_ZNK11ap_int_baseILi192ELb0ELb0EE6iszeroEv", metadata !141, i32 2695, metadata !1092, i1 false, i1 false, i32 0, i32 0, null, i32 256, i1 false, null, null, i32 0, metadata !153, i32 2695} ; [ DW_TAG_subprogram ]
!1128 = metadata !{i32 786478, i32 0, metadata !968, metadata !"is_zero", metadata !"is_zero", metadata !"_ZNK11ap_int_baseILi192ELb0ELb0EE7is_zeroEv", metadata !141, i32 2700, metadata !1092, i1 false, i1 false, i32 0, i32 0, null, i32 256, i1 false, null, null, i32 0, metadata !153, i32 2700} ; [ DW_TAG_subprogram ]
!1129 = metadata !{i32 786478, i32 0, metadata !968, metadata !"sign", metadata !"sign", metadata !"_ZNK11ap_int_baseILi192ELb0ELb0EE4signEv", metadata !141, i32 2705, metadata !1092, i1 false, i1 false, i32 0, i32 0, null, i32 256, i1 false, null, null, i32 0, metadata !153, i32 2705} ; [ DW_TAG_subprogram ]
!1130 = metadata !{i32 786478, i32 0, metadata !968, metadata !"clear", metadata !"clear", metadata !"_ZN11ap_int_baseILi192ELb0ELb0EE5clearEi", metadata !141, i32 2713, metadata !1001, i1 false, i1 false, i32 0, i32 0, null, i32 256, i1 false, null, null, i32 0, metadata !153, i32 2713} ; [ DW_TAG_subprogram ]
!1131 = metadata !{i32 786478, i32 0, metadata !968, metadata !"invert", metadata !"invert", metadata !"_ZN11ap_int_baseILi192ELb0ELb0EE6invertEi", metadata !141, i32 2719, metadata !1001, i1 false, i1 false, i32 0, i32 0, null, i32 256, i1 false, null, null, i32 0, metadata !153, i32 2719} ; [ DW_TAG_subprogram ]
!1132 = metadata !{i32 786478, i32 0, metadata !968, metadata !"test", metadata !"test", metadata !"_ZNK11ap_int_baseILi192ELb0ELb0EE4testEi", metadata !141, i32 2727, metadata !1133, i1 false, i1 false, i32 0, i32 0, null, i32 256, i1 false, null, null, i32 0, metadata !153, i32 2727} ; [ DW_TAG_subprogram ]
!1133 = metadata !{i32 786453, i32 0, metadata !"", i32 0, i32 0, i64 0, i64 0, i64 0, i32 0, null, metadata !1134, i32 0, i32 0} ; [ DW_TAG_subroutine_type ]
!1134 = metadata !{metadata !164, metadata !1090, metadata !162}
!1135 = metadata !{i32 786478, i32 0, metadata !968, metadata !"set", metadata !"set", metadata !"_ZN11ap_int_baseILi192ELb0ELb0EE3setEi", metadata !141, i32 2733, metadata !1001, i1 false, i1 false, i32 0, i32 0, null, i32 256, i1 false, null, null, i32 0, metadata !153, i32 2733} ; [ DW_TAG_subprogram ]
!1136 = metadata !{i32 786478, i32 0, metadata !968, metadata !"set", metadata !"set", metadata !"_ZN11ap_int_baseILi192ELb0ELb0EE3setEib", metadata !141, i32 2739, metadata !1137, i1 false, i1 false, i32 0, i32 0, null, i32 256, i1 false, null, null, i32 0, metadata !153, i32 2739} ; [ DW_TAG_subprogram ]
!1137 = metadata !{i32 786453, i32 0, metadata !"", i32 0, i32 0, i64 0, i64 0, i64 0, i32 0, null, metadata !1138, i32 0, i32 0} ; [ DW_TAG_subroutine_type ]
!1138 = metadata !{null, metadata !984, metadata !162, metadata !164}
!1139 = metadata !{i32 786478, i32 0, metadata !968, metadata !"lrotate", metadata !"lrotate", metadata !"_ZN11ap_int_baseILi192ELb0ELb0EE7lrotateEi", metadata !141, i32 2746, metadata !1001, i1 false, i1 false, i32 0, i32 0, null, i32 256, i1 false, null, null, i32 0, metadata !153, i32 2746} ; [ DW_TAG_subprogram ]
!1140 = metadata !{i32 786478, i32 0, metadata !968, metadata !"rrotate", metadata !"rrotate", metadata !"_ZN11ap_int_baseILi192ELb0ELb0EE7rrotateEi", metadata !141, i32 2755, metadata !1001, i1 false, i1 false, i32 0, i32 0, null, i32 256, i1 false, null, null, i32 0, metadata !153, i32 2755} ; [ DW_TAG_subprogram ]
!1141 = metadata !{i32 786478, i32 0, metadata !968, metadata !"set_bit", metadata !"set_bit", metadata !"_ZN11ap_int_baseILi192ELb0ELb0EE7set_bitEib", metadata !141, i32 2763, metadata !1137, i1 false, i1 false, i32 0, i32 0, null, i32 256, i1 false, null, null, i32 0, metadata !153, i32 2763} ; [ DW_TAG_subprogram ]
!1142 = metadata !{i32 786478, i32 0, metadata !968, metadata !"get_bit", metadata !"get_bit", metadata !"_ZNK11ap_int_baseILi192ELb0ELb0EE7get_bitEi", metadata !141, i32 2768, metadata !1133, i1 false, i1 false, i32 0, i32 0, null, i32 256, i1 false, null, null, i32 0, metadata !153, i32 2768} ; [ DW_TAG_subprogram ]
!1143 = metadata !{i32 786478, i32 0, metadata !968, metadata !"b_not", metadata !"b_not", metadata !"_ZN11ap_int_baseILi192ELb0ELb0EE5b_notEv", metadata !141, i32 2773, metadata !982, i1 false, i1 false, i32 0, i32 0, null, i32 256, i1 false, null, null, i32 0, metadata !153, i32 2773} ; [ DW_TAG_subprogram ]
!1144 = metadata !{i32 786478, i32 0, metadata !968, metadata !"countLeadingZeros", metadata !"countLeadingZeros", metadata !"_ZN11ap_int_baseILi192ELb0ELb0EE17countLeadingZerosEv", metadata !141, i32 2780, metadata !1145, i1 false, i1 false, i32 0, i32 0, null, i32 256, i1 false, null, null, i32 0, metadata !153, i32 2780} ; [ DW_TAG_subprogram ]
!1145 = metadata !{i32 786453, i32 0, metadata !"", i32 0, i32 0, i64 0, i64 0, i64 0, i32 0, null, metadata !1146, i32 0, i32 0} ; [ DW_TAG_subroutine_type ]
!1146 = metadata !{metadata !162, metadata !984}
!1147 = metadata !{i32 786478, i32 0, metadata !968, metadata !"operator++", metadata !"operator++", metadata !"_ZN11ap_int_baseILi192ELb0ELb0EEppEv", metadata !141, i32 2837, metadata !1125, i1 false, i1 false, i32 0, i32 0, null, i32 256, i1 false, null, null, i32 0, metadata !153, i32 2837} ; [ DW_TAG_subprogram ]
!1148 = metadata !{i32 786478, i32 0, metadata !968, metadata !"operator--", metadata !"operator--", metadata !"_ZN11ap_int_baseILi192ELb0ELb0EEmmEv", metadata !141, i32 2841, metadata !1125, i1 false, i1 false, i32 0, i32 0, null, i32 256, i1 false, null, null, i32 0, metadata !153, i32 2841} ; [ DW_TAG_subprogram ]
!1149 = metadata !{i32 786478, i32 0, metadata !968, metadata !"operator++", metadata !"operator++", metadata !"_ZN11ap_int_baseILi192ELb0ELb0EEppEi", metadata !141, i32 2849, metadata !1150, i1 false, i1 false, i32 0, i32 0, null, i32 256, i1 false, null, null, i32 0, metadata !153, i32 2849} ; [ DW_TAG_subprogram ]
!1150 = metadata !{i32 786453, i32 0, metadata !"", i32 0, i32 0, i64 0, i64 0, i64 0, i32 0, null, metadata !1151, i32 0, i32 0} ; [ DW_TAG_subroutine_type ]
!1151 = metadata !{metadata !1042, metadata !984, metadata !162}
!1152 = metadata !{i32 786478, i32 0, metadata !968, metadata !"operator--", metadata !"operator--", metadata !"_ZN11ap_int_baseILi192ELb0ELb0EEmmEi", metadata !141, i32 2854, metadata !1150, i1 false, i1 false, i32 0, i32 0, null, i32 256, i1 false, null, null, i32 0, metadata !153, i32 2854} ; [ DW_TAG_subprogram ]
!1153 = metadata !{i32 786478, i32 0, metadata !968, metadata !"operator+", metadata !"operator+", metadata !"_ZNK11ap_int_baseILi192ELb0ELb0EEpsEv", metadata !141, i32 2863, metadata !1154, i1 false, i1 false, i32 0, i32 0, null, i32 256, i1 false, null, null, i32 0, metadata !153, i32 2863} ; [ DW_TAG_subprogram ]
!1154 = metadata !{i32 786453, i32 0, metadata !"", i32 0, i32 0, i64 0, i64 0, i64 0, i32 0, null, metadata !1155, i32 0, i32 0} ; [ DW_TAG_subroutine_type ]
!1155 = metadata !{metadata !968, metadata !1090}
!1156 = metadata !{i32 786478, i32 0, metadata !968, metadata !"operator-", metadata !"operator-", metadata !"_ZNK11ap_int_baseILi192ELb0ELb0EEngEv", metadata !141, i32 2867, metadata !1157, i1 false, i1 false, i32 0, i32 0, null, i32 256, i1 false, null, null, i32 0, metadata !153, i32 2867} ; [ DW_TAG_subprogram ]
!1157 = metadata !{i32 786453, i32 0, metadata !"", i32 0, i32 0, i64 0, i64 0, i64 0, i32 0, null, metadata !1158, i32 0, i32 0} ; [ DW_TAG_subroutine_type ]
!1158 = metadata !{metadata !1159, metadata !1090}
!1159 = metadata !{i32 786454, metadata !1160, metadata !"minus", metadata !141, i32 2425, i64 0, i64 0, i64 0, i32 0, metadata !1161} ; [ DW_TAG_typedef ]
